 cvlAd

 Timestamp is 3d9fae13 (Sat Oct 05 22:29:23 2002)

 Preferred load address is 00400000

 Start         Length     Name                   Class
 0001:00000000 000d9268H .text                   CODE
 0001:000d9270 000007c3H .text$x                 CODE
 0002:00000000 0000187cH .rdata                  DATA
 0002:00001880 00000998H .xdata$x                DATA
 0002:00002218 00000000H .edata                  DATA
 0003:00000000 00000004H .CRT$XCA                DATA
 0003:00000004 00000004H .CRT$XCU                DATA
 0003:00000008 00000004H .CRT$XCZ                DATA
 0003:0000000c 00000004H .CRT$XIA                DATA
 0003:00000010 00000004H .CRT$XIZ                DATA
 0003:00000020 0001ac84H .data                   DATA
 0003:0001acb0 00002f9cH .bss                    DATA
 0004:00000000 00000078H .idata$2                DATA
 0004:00000078 00000014H .idata$3                DATA
 0004:0000008c 0000068cH .idata$4                DATA
 0004:00000718 0000068cH .idata$5                DATA
 0004:00000da4 00001a06H .idata$6                DATA
 0005:00000000 000003b0H _DATA1                  DATA
 0006:00000000 00000054H DATA                    DATA

  Address         Publics by Value              Rva+Base     Lib:Object

 0001:00000000       ?Cmp@@YA_NUCvPoint@@0@Z    00401000 f   aApproxPoly.obj
 0001:0000001b       ?GetContour@@YA_NHPAPAUCvSeq@@PAHPAUCvMemStorage@@PAUAtsRandState@@@Z 0040101b f   aApproxPoly.obj
 0001:0000027e       ?CheckSlice@@YAHUCvPoint@@0PAUCvSeqReader@@MPAHH@Z 0040127e f   aApproxPoly.obj
 0001:000004ce       ?Check@@YAHPAUCvSeq@@0M@Z  004014ce f   aApproxPoly.obj
 0001:00000779       ?InitAApproxPoly@@YAXXZ    00401779 f   aApproxPoly.obj
 0001:000009e0       ?cvRound@@YAHN@Z           004019e0 f i aApproxPoly.obj
 0001:00000a10       ?GetVald@@YANNN@Z          00401a10 f   aContourCollection.obj
 0001:00000bb0       ?GetVali@@YAHNN@Z          00401bb0 f   aContourCollection.obj
 0001:00000d2d       ?CreateContour@@YA_NPAPAUCvSeq@@HPAPAUCvMemStorage@@@Z 00401d2d f   aContourCollection.obj
 0001:00000d72       ?Line@@YAXUCvPoint@@0PAUCvSeq@@H@Z 00401d72 f   aContourCollection.obj
 0001:00000f41       ?PolyLine@@YAPAUCvSeq@@PAUCvMemStorage@@@Z 00401f41 f   aContourCollection.obj
 0001:00001089       ?arccos@@YAPAUCvSeq@@PAUCvMemStorage@@@Z 00402089 f   aContourCollection.obj
 0001:0000129c       ?arctan@@YAPAUCvSeq@@PAUCvMemStorage@@@Z 0040229c f   aContourCollection.obj
 0001:000014c7       ?ch@@YAPAUCvSeq@@PAUCvMemStorage@@@Z 004024c7 f   aContourCollection.obj
 0001:00001627       ?Exp@@YAPAUCvSeq@@PAUCvMemStorage@@@Z 00402627 f   aContourCollection.obj
 0001:00001829       ?Floor@@YAPAUCvSeq@@PAUCvMemStorage@@@Z 00402829 f   aContourCollection.obj
 0001:00001a41       ?Log@@YAPAUCvSeq@@PAUCvMemStorage@@@Z 00402a41 f   aContourCollection.obj
 0001:00001c52       ?Pow@@YAPAUCvSeq@@PAUCvMemStorage@@@Z 00402c52 f   aContourCollection.obj
 0001:00001e84       ?Sin@@YAPAUCvSeq@@PAUCvMemStorage@@@Z 00402e84 f   aContourCollection.obj
 0001:00002079       ?Pol@@YANNPANH@Z           00403079 f   aContourCollection.obj
 0001:0000211e       ?Polimon@@YAPAUCvSeq@@PAUCvMemStorage@@@Z 0040311e f   aContourCollection.obj
 0001:000023d4       ?Ellips@@YAPAUCvSeq@@PAUCvMemStorage@@@Z 004033d4 f   aContourCollection.obj
 0001:00002566       ?FoliumOfDescartes@@YAPAUCvSeq@@PAUCvMemStorage@@@Z 00403566 f   aContourCollection.obj
 0001:00002836       ?Epicycloid@@YAPAUCvSeq@@PAUCvMemStorage@@@Z 00403836 f   aContourCollection.obj
 0001:00002bff       ?Hypocycloid@@YAPAUCvSeq@@PAUCvMemStorage@@@Z 00403bff f   aContourCollection.obj
 0001:00002fc8       ?___@@YAPAUCvSeq@@PAUCvMemStorage@@@Z 00403fc8 f   aContourCollection.obj
 0001:00003120       ?InitAContourMoments@@YAXXZ 00404120 f   aContourMoments.obj
 0001:00003f10       ?cvSlice@@YA?AUCvSlice@@HH@Z 00404f10 f i aContourMoments.obj
 0001:00003f40       ?read_contour_params@@YAXXZ 00404f40 f   aContours.obj
 0001:0000400b       ?get_slice_length@@YAHPAUCvSeq@@UCvSlice@@@Z 0040500b f   aContours.obj
 0001:00004082       ?calc_contour_perimeter@@YANPAUCvPoint@@H@Z 00405082 f   aContours.obj
 0001:00004136       ?InitAContours@@YAXXZ      00405136 f   aContours.obj
 0001:00005500       ?cvSize@@YA?AUCvSize@@HH@Z 00406500 f i aContours.obj
 0001:00005530       ?InitAMatchContours@@YAXXZ 00406530 f   aContoursMatch.obj
 0001:00005d50       ?InitACreateContourTree@@YAXXZ 00406d50 f   aCreateContourTree.obj
 0001:000065d0       ?InitAMatchContourTrees@@YAXXZ 004075d0 f   aMatchContourTrees.obj
 0001:00006f70       ?InitAPyramids@@YAXXZ      00407f70 f   aPyramids.obj
 0001:000087a0       ?InitAPyrSegmentation@@YAXXZ 004097a0 f   aPyrSegmentation.obj
 0001:00009280       ?read_image_gap_size@@YAHXZ 0040a280 f   aDistanceTransform.obj
 0001:000092bc       ?read_gen_type@@YAHXZ      0040a2bc f   aDistanceTransform.obj
 0001:000092f8       ?test_dt@@YAHPAX@Z         0040a2f8 f   aDistanceTransform.obj
 0001:000098da       ?InitADistanceTransform@@YAXXZ 0040a8da f   aDistanceTransform.obj
 0001:00009950       ?cvFloor@@YAHN@Z           0040a950 f i aDistanceTransform.obj
 0001:000099a0       ?InitAAdaptThreshold@@YAXXZ 0040a9a0 f   aAdaptThresh.obj
 0001:0000a350       ?InitAThreshold@@YAXXZ     0040b350 f   aThresh.obj
 0001:0000b1b0       ?InitACamShift@@YAXXZ      0040c1b0 f   aCamShift.obj
 0001:0000b9a0       ?InitAMeanShift@@YAXXZ     0040c9a0 f   aMeanShift.obj
 0001:0000c130       ?InitAPixelAccess@@YAXXZ   0040d130 f   aPixelAccess.obj
 0001:00011f40       ?InitACalcContrastHist@@YAXXZ 00412f40 f   aCalcContrastHist.obj
 0001:000129e0       ?InitAEMD@@YAXXZ           004139e0 f   aEMD.obj
 0001:00012bb0       ?InitAHistograms@@YAXXZ    00413bb0 f   aHistograms.obj
 0001:00019860       ?_cvFloodFill8uC1R_slow@@YA?AW4CvStatus@@PAEHUCvSize@@UCvPoint@@HHH@Z 0041a860 f   aFloodFill.obj
 0001:00019c93       ?_cvFloodFill32fC1R_slow@@YA?AW4CvStatus@@PAMHUCvSize@@UCvPoint@@MMM@Z 0041ac93 f   aFloodFill.obj
 0001:0001a06a       ?InitAFloodFill@@YAXXZ     0041b06a f   aFloodFill.obj
 0001:0001ae70       ?_cvFloodFill8uC1R_slow8@@YA?AW4CvStatus@@PAEHUCvSize@@UCvPoint@@HHH@Z 0041be70 f   aFloodFill8.obj
 0001:0001b496       ?_cvFloodFill32fC1R_slow8@@YA?AW4CvStatus@@PAMHUCvSize@@UCvPoint@@MMM@Z 0041c496 f   aFloodFill8.obj
 0001:0001ba34       ?InitAFloodFill8@@YAXXZ    0041ca34 f   aFloodFill8.obj
 0001:0001c740       _atsCreateRandomContours   0041d740 f   uContours.obj
 0001:0001c820       _atsGetImageInfo           0041d820 f   uIplUtils.obj
 0001:0001c9bb       _atsFillRandomImage        0041d9bb f   uIplUtils.obj
 0001:0001cdd9       _atsFillRandomImageEx      0041ddd9 f   uIplUtils.obj
 0001:0001cfce       _atsCreateImage            0041dfce f   uIplUtils.obj
 0001:0001d042       _atsReleaseImage           0041e042 f   uIplUtils.obj
 0001:0001d08e       _atsGetDataFromImage       0041e08e f   uIplUtils.obj
 0001:0001d12e       _atsPutDataToImage         0041e12e f   uIplUtils.obj
 0001:0001d1ce       _atsConvert                0041e1ce f   uIplUtils.obj
 0001:0001d78d       _atsMinFilterEx            0041e78d f   uIplUtils.obj
 0001:0001dc09       _atsMaxFilterEx            0041ec09 f   uIplUtils.obj
 0001:0001e085       _atsReplicateBorders       0041f085 f   uIplUtils.obj
 0001:0001e34b       _atsConvolve               0041f34b f   uIplUtils.obj
 0001:0001e564       _atsCalcImageStatistics    0041f564 f   uIplUtils.obj
 0001:0001e9fa       _atsCalcMoments            0041f9fa f   uIplUtils.obj
 0001:0001f850       _atsDrawLine               00420850 f   uIplUtils.obj
 0001:0001faa8       _atsDrawEllipse            00420aa8 f   uIplUtils.obj
 0001:0001fdff       _atsDrawConic              00420dff f   uIplUtils.obj
 0001:000200bf       _atsCalcQuadricCoeffs      004210bf f   uIplUtils.obj
 0001:000206ac       _atsCrossCorr              004216ac f   uIplUtils.obj
 0001:00020951       _atsClearBorder            00421951 f   uIplUtils.obj
 0001:00020a4f       _atsGenerateBlobImage      00421a4f f   uIplUtils.obj
 0001:00020bd0       _atsGetMoments             00421bd0 f   uIplUtils.obj
 0001:00020e55       ?_atsCalcKer@@YAXPADHHH@Z  00421e55 f   uIplUtils.obj
 0001:00021149       _atsCalcKernel             00422149 f   uIplUtils.obj
 0001:00021294       _atsCalcDervConvKernel     00422294 f   uIplUtils.obj
 0001:000213d6       _icvAlloc_                 004223d6 f   uIplUtils.obj
 0001:0002142e       _icvFree_                  0042242e f   uIplUtils.obj
 0001:000214ac       _atsFindFirstErr           004224ac f   uIplUtils.obj
 0001:00021878       _atsScaleAddImage          00422878 f   uIplUtils.obj
 0001:00021a19       _atsScaleAddAbsImage       00422a19 f   uIplUtils.obj
 0001:00021bbe       _atsRandPoint              00422bbe f   uIplUtils.obj
 0001:00021c0c       _atsRandPoint2D32f         00422c0c f   uIplUtils.obj
 0001:00021c69       _atsLinearFunc             00422c69 f   uIplUtils.obj
 0001:00022b25       _atsMul                    00423b25 f   uIplUtils.obj
 0001:00023166       _atsLogic                  00424166 f   uIplUtils.obj
 0001:0002352d       _atsLogicS                 0042452d f   uIplUtils.obj
 0001:00023990       ?cvPoint@@YA?AUCvPoint@@HH@Z 00424990 f i uIplUtils.obj
 0001:000239c0       ?cvPixSize@@YAHH@Z         004249c0 f i uIplUtils.obj
 0001:000239f0       _atsCreateImageFromFile    004249f0 f   uReadFile.obj
 0001:00023d30       ?InitAMorphology@@YAXXZ    00424d30 f   aMorphology.obj
 0001:00024af0       ?InitAImageStatistics@@YAXXZ 00425af0 f   aImageStatistics.obj
 0001:00027c60       _cvMean                    00428c60 f i aImageStatistics.obj
 0001:00027cc0       _cvMean_StdDev             00428cc0 f i aImageStatistics.obj
 0001:00027d30       ?InitAMoments@@YAXXZ       00428d30 f   aMoments.obj
 0001:00028d30       ?calcTestNorm@@YANPAN0HH@Z 00429d30 f   aNorm.obj
 0001:000291dc       ?TestNorm@@YANPAU_IplImage@@0H@Z 0042a1dc f   aNorm.obj
 0001:00029a7e       ?InitANorm@@YAXXZ          0042aa7e f   aNorm.obj
 0001:0002a870       ?calcTestNormMask@@YANPAN0PAEHH@Z 0042b870 f   aNormMask.obj
 0001:0002adbf       ?TestNormMask@@YANPAU_IplImage@@00H@Z 0042bdbf f   aNormMask.obj
 0001:0002b828       ?InitANormMask@@YAXXZ      0042c828 f   aNormMask.obj
 0001:0002c980       ?test_ht@@YAHPAX@Z         0042d980 f   aHoughTransform.obj
 0001:0002cbe7       ?InitAHoughLines@@YAXXZ    0042dbe7 f   aHoughTransform.obj
 0001:0002cc90       ?atsCheckConvexHull@@YAHPAUCvPoint@@HPAHHH@Z 0042dc90 f   aconvhull.obj
 0001:0002cf10       ?atsCheckConvexHullP@@YAHPAUCvPoint@@HPAPAU1@HH@Z 0042df10 f   aconvhull.obj
 0001:0002d165       ?InitAConvexHull@@YAXXZ    0042e165 f   aconvhull.obj
 0001:0002da90       ?fmaFitEllipse@@YAHXZ      0042ea90 f   afitellipse.obj
 0001:0002de1d       ?InitAFitEllipse@@YAXXZ    0042ee1d f   afitellipse.obj
 0001:0002de60       ?test_lf@@YAHPAX@Z         0042ee60 f   aFitLines.obj
 0001:0002e127       ?InitAFitLine@@YAXXZ       0042f127 f   aFitLines.obj
 0001:0002e1d0       _atsCvtHullToContour       0042f1d0 f   aminarearect.obj
 0001:0002e338       ?atsCheckMinAreaRect@@YAHPAUCvPoint@@HUCvPoint2D32f@@11@Z 0042f338 f   aminarearect.obj
 0001:0002ea80       ?InitAMinAreaRect@@YAXXZ   0042fa80 f   aminarearect.obj
 0001:0002ed20       ?cvPoint2D32f@@YA?AUCvPoint2D32f@@NN@Z 0042fd20 f i aminarearect.obj
 0001:0002ed50       ?read_subdiv_params@@YAXXZ 0042fd50 f   aSubdivisions.obj
 0001:0002edc3       ?InitASubdiv@@YAXXZ        0042fdc3 f   aSubdivisions.obj
 0001:0002f4d0       ?cvRect@@YA?AUCvRect@@HHHH@Z 004304d0 f i aSubdivisions.obj
 0001:0002f520       ?icvCreateSubdivDelaunay2D@@YAPAUCvSubdiv2D@@UCvRect@@PAUCvMemStorage@@@Z 00430520 f i aSubdivisions.obj
 0001:0002f580       ?icvSqDist2D32f@@YANUCvPoint2D32f@@0@Z 00430580 f i aSubdivisions.obj
 0001:0002f5c0       ?_cvJacobiEigens_32f@@YA?AW4CvStatus@@PAM00HM@Z 004305c0 f   aEigenObjects.obj
 0001:0002fe34       ?_cvCalcEigenObjects_8u32fR_q@@YA?AW4CvStatus@@HPAPAEHPAPAMHUCvSize@@PAM3HPAHPAN@Z 00430e34 f   aEigenObjects.obj
 0001:000306b0       ?_cvCalcDecompCoeff_8u32fR_q@@YAMPAEHPAMH1HUCvSize@@@Z 004316b0 f   aEigenObjects.obj
 0001:000307c0       ?_cvEigenDecomposite_8u32fR_q@@YA?AW4CvStatus@@PAEHHPAPAMHPAMHUCvSize@@2@Z 004317c0 f   aEigenObjects.obj
 0001:000308af       ?_cvEigenProjection_8u32fR_q@@YA?AW4CvStatus@@HPAPAMHPAM1HPAEHUCvSize@@@Z 004318af f   aEigenObjects.obj
 0001:00030b14       ?read_callback_8u@@YA?AW4CvStatus@@HPAX0@Z 00431b14 f   aEigenObjects.obj
 0001:00030bc8       ?read_callback_32f@@YA?AW4CvStatus@@HPAX0@Z 00431bc8 f   aEigenObjects.obj
 0001:00030c8d       ?write_callback_8u@@YA?AW4CvStatus@@HPAX0@Z 00431c8d f   aEigenObjects.obj
 0001:00030d41       ?write_callback_32f@@YA?AW4CvStatus@@HPAX0@Z 00431d41 f   aEigenObjects.obj
 0001:00030e06       ?InitAEigenObjects@@YAXXZ  00431e06 f   aEigenObjects.obj
 0001:00034090       ?InitAAbsDiff@@YAXXZ       00435090 f   aAbsDiff.obj
 0001:00034d00       ?cvScalar@@YA?AUCvScalar@@NNNN@Z 00435d00 f i aAbsDiff.obj
 0001:00034d70       ?InitAAcc@@YAXXZ           00435d70 f   aAccum.obj
 0001:00035d40       ?InitAMaskAcc@@YAXXZ       00436d40 f   aMaskAccum.obj
 0001:000371b0       ?InitAConvert@@YAXXZ       004381b0 f   aConvert.obj
 0001:000391a0       ?distance@@YAMPAM0H@Z      0043a1a0 f   akmeans.obj
 0001:0003920c       ?_real_kmeans@@YAHHPAPAMHHPAHMH@Z 0043a20c f   akmeans.obj
 0001:0003972c       ?InitAKMeans@@YAXXZ        0043a72c f   akmeans.obj
 0001:00039a70       ?cvTermCriteria@@YA?AUCvTermCriteria@@HHN@Z 0043aa70 f i akmeans.obj
 0001:00039ac0       ?InitAMathUtils@@YAXXZ     0043aac0 f   aMathUtils.obj
 0001:0003c080       ?cvInvSqrt@@YAMM@Z         0043d080 f i aMathUtils.obj
 0001:0003c0f0       ?cvSqrt@@YAMM@Z            0043d0f0 f i aMathUtils.obj
 0001:0003c160       _atsCompareAngles          0043d160 f i aMathUtils.obj
 0001:0003c1f0       ?InitASamplers@@YAXXZ      0043d1f0 f   aSamplers.obj
 0001:0003dbc0       ?InitAMatchTemplate@@YAXXZ 0043ebc0 f   aTemplMatch.obj
 0001:0003ed10       ?create_simple_seq@@YAPAU_simple_seq@@HH@Z 0043fd10 f   aSequence.obj
 0001:0003ed69       ?release_simple_seq@@YAXPAPAU_simple_seq@@@Z 0043fd69 f   aSequence.obj
 0001:0003ed81       ?simple_seq_elem@@YAPADPAU_simple_seq@@H@Z 0043fd81 f   aSequence.obj
 0001:0003edd2       ?push_simple_seq_elem@@YAXPAU_simple_seq@@PAX@Z 0043fdd2 f   aSequence.obj
 0001:0003ee46       ?drop_simple_seq_elem@@YAXPAU_simple_seq@@@Z 0043fe46 f   aSequence.obj
 0001:0003ee8d       ?clear_simple_seq@@YAXPAU_simple_seq@@@Z 0043fe8d f   aSequence.obj
 0001:0003ee9c       ?remove_simple_seq_elem@@YAXPAU_simple_seq@@H@Z 0043fe9c f   aSequence.obj
 0001:0003ef3f       ?insert_simple_seq_elem@@YAXPAU_simple_seq@@HPAX@Z 0043ff3f f   aSequence.obj
 0001:0003f001       ?clear_simple_set@@YAXPAU_simple_set@@@Z 00440001 f   aSequence.obj
 0001:0003f07f       ?create_simple_set@@YAPAU_simple_set@@HH@Z 0044007f f   aSequence.obj
 0001:0003f0f9       ?release_simple_set@@YAXPAPAU_simple_set@@@Z 004400f9 f   aSequence.obj
 0001:0003f111       ?find_simple_set_elem@@YAPADPAU_simple_set@@H@Z 00440111 f   aSequence.obj
 0001:0003f19f       ?add_simple_set_elem@@YAHPAU_simple_set@@PAX@Z 0044019f f   aSequence.obj
 0001:0003f295       ?remove_simple_set_elem@@YAXPAU_simple_set@@H@Z 00440295 f   aSequence.obj
 0001:0003f350       ?clear_simple_graph@@YAXPAU_simple_graph@@@Z 00440350 f   aSequence.obj
 0001:0003f3a3       ?create_simple_graph@@YAPAU_simple_graph@@HHHH@Z 004403a3 f   aSequence.obj
 0001:0003f455       ?release_simple_graph@@YAXPAPAU_simple_graph@@@Z 00440455 f   aSequence.obj
 0001:0003f47e       ?add_simple_graph_vertex@@YAHPAU_simple_graph@@PAX@Z 0044047e f   aSequence.obj
 0001:0003f49d       ?remove_simple_graph_vertex@@YAXPAU_simple_graph@@H@Z 0044049d f   aSequence.obj
 0001:0003f538       ?add_simple_graph_edge@@YAXPAU_simple_graph@@HHPAX@Z 00440538 f   aSequence.obj
 0001:0003f66b       ?remove_simple_graph_edge@@YAXPAU_simple_graph@@HH@Z 0044066b f   aSequence.obj
 0001:0003f774       ?find_simple_graph_vertex@@YAPADPAU_simple_graph@@H@Z 00440774 f   aSequence.obj
 0001:0003f793       ?find_simple_graph_edge@@YAPADPAU_simple_graph@@HH@Z 00440793 f   aSequence.obj
 0001:0003f809       ?calc_simple_graph_vertex_degree@@YAHPAU_simple_graph@@H@Z 00440809 f   aSequence.obj
 0001:0003f91f       ?cmp@@YAHPBX0PAX@Z         0044091f f   aSequence.obj
 0001:0003fa26       ?test_sort_invert_seq@@YAHXZ 00440a26 f   aSequence.obj
 0001:0003fea3       ?InitASequence@@YAXXZ      00440ea3 f   aSequence.obj
 0001:00043f30       _atsGetTickCount           00444f30 f i aSequence.obj
 0001:00043f50       ?InitADrawing@@YAXXZ       00444f50 f   aDrawing.obj
 0001:00044ea0       ?InitADrawingRegress@@YAXXZ 00445ea0 f   adrawing_regress.obj
 0001:000467f0       ?InitAMotionTemplates@@YAXXZ 004477f0 f   aMotionTemplates.obj
 0001:00048980       ?testFill@@YAXPAMHUCvSize@@UCvPoint@@M0HMPAUCvConnectedComp@@@Z 00449980 f   aMotSeg.obj
 0001:00049100       ?InitAMotSeg@@YAXXZ        0044a100 f   aMotSeg.obj
 0001:00049ae0       ?InitACalcOpticalFlowHS@@YAXXZ 0044aae0 f   aOptFlowHS.obj
 0001:0004ab50       ?InitACalcOpticalFlowLK@@YAXXZ 0044bb50 f   aOptFlowLK.obj
 0001:0004bbc0       ?InitAOptFlowPyrLK@@YAXXZ  0044cbc0 f   aOptFlowPyrLK.obj
 0001:0004c2f0       ?InitAGestureRecognition@@YAXXZ 0044d2f0 f   aGestureRecognition.obj
 0001:0004d5e0       ?InitALaplace@@YAXXZ       0044e5e0 f   aLaplace.obj
 0001:0004ddf0       ?InitAScharr@@YAXXZ        0044edf0 f   aScharr.obj
 0001:0004e5d0       ?InitASobel@@YAXXZ         0044f5d0 f   aSobel.obj
 0001:0004ee60       ?InitAMatr@@YAXXZ          0044fe60 f   aMatrix.obj
 0001:000504d0       ?cvMat@@YA?AUCvMat@@HHHPAX@Z 004514d0 f i aMatrix.obj
 0001:00050580       ?cvmGet@@YANPBUCvMat@@HH@Z 00451580 f i aMatrix.obj
 0001:00050640       ?__fl2db@@YAXPAMPANH@Z     00451640 f   aMatrix2.obj
 0001:0005067d       ?__DotProduct@@YANPAN0H@Z  0045167d f   aMatrix2.obj
 0001:000506e3       ?__CrossProduct@@YAXPAN00@Z 004516e3 f   aMatrix2.obj
 0001:00050743       ?__Trace@@YANPANHH@Z       00451743 f   aMatrix2.obj
 0001:000507b7       ?__MulTrans@@YAXPAN0HHH@Z  004517b7 f   aMatrix2.obj
 0001:0005093e       ?__Det@@YANPANH@Z          0045193e f   aMatrix2.obj
 0001:00050c6c       ?InitAMatr2@@YAXXZ         00451c6c f   aMatrix2.obj
 0001:00053070       _cvMatArray                00454070 f i aMatrix2.obj
 0001:000530e0       _cvmPerspectiveProject     004540e0 f i aMatrix2.obj
 0001:00053150       ?InitASVD@@YAXXZ           00454150 f   asvd.obj
 0001:000537e0       ?InitACanny@@YAXXZ         004547e0 f   aCanny.obj
 0001:00053b10       ?InitACorner@@YAXXZ        00454b10 f   aCorner.obj
 0001:00054a30       ?InitAMinEVal@@YAXXZ       00455a30 f   aMinEVal.obj
 0001:000554e0       ?InitAPreCorner@@YAXXZ     004564e0 f   aPreCorner.obj
 0001:00055cb0       ?follow@@YAHHHMUCvSize@@PAEHPAM@Z 00456cb0 f   canny.obj
 0001:00055e0c       _atsCannyStatistics        00456e0c f   canny.obj
 0001:00056600       ?InitAArithmetic@@YAXXZ    00457600 f   aarithm.obj
 0001:00057c70       ?cvScalarAll@@YA?AUCvScalar@@N@Z 00458c70 f i aarithm.obj
 0001:00057d0f       ?InitAImage@@YAXXZ         00458d0f f   aimage.obj
 0001:00058920       ?InitALogic@@YAXXZ         00459920 f   alogic.obj
 0001:00059de0       ?InitAPOSIT@@YAXXZ         0045ade0 f   aposit.obj
 0001:0005a910       ?InitAConDens@@YAXXZ       0045b910 f   aCondens.obj
 0001:0005af00       ?InitAKalman@@YAXXZ        0045bf00 f   aKalman.obj
 0001:0005b570       ?InitASnakes@@YAXXZ        0045c570 f   asnakes.obj
 0001:0005bc60       ?InitACalibration@@YAXXZ   0045cc60 f   aCameraCalibration.obj
 0001:0005cc40       ?show_points@@YAXPAU_IplImage@@PAUCvPoint2D32f@@H1H@Z 0045dc40 f   aChessCorners.obj
 0001:0005cde0       ?InitAChessCorners@@YAXXZ  0045dde0 f   aChessCorners.obj
 0001:0005d860       ?UnDistortTest_C1@@YAXPAE0HUCvSize@@PAM2H@Z 0045e860 f   aUnDistort.obj
 0001:0005dda1       ?UnDistortTest_C3@@YAXPAE0HUCvSize@@PAM2H@Z 0045eda1 f   aUnDistort.obj
 0001:0005e571       ?InitAUnDistort@@YAXXZ     0045f571 f   aUnDistort.obj
 0001:00060270       ?InitAImageToHMMObs@@YAXXZ 00461270 f   aHMMObs.obj
 0001:00060af0       ?InitAArrayIterator@@YAXXZ 00461af0 f   aarrayiterator.obj
 0001:00060c00       ?foaCvArrayIterator@@YAHXZ 00461c00 f i aarrayiterator.obj
 0001:00060fc0       ??D?$CvArrayIterator@F@@QBEAAFXZ 00461fc0 f i aarrayiterator.obj
 0001:00060fe0       ?get_idx@?$CvArrayIterator@F@@QBEHXZ 00461fe0 f i aarrayiterator.obj
 0001:00061000       ??E?$CvArrayIterator@F@@QAEAAV0@XZ 00462000 f i aarrayiterator.obj
 0001:00061030       ??E?$CvArrayIterator@F@@QAE?BV0@H@Z 00462030 f i aarrayiterator.obj
 0001:00061090       ??0?$CvArrayIterator@F@@QAE@XZ 00462090 f i aarrayiterator.obj
 0001:000610c0       ??0?$CvArrayIterator@F@@QAE@PAF@Z 004620c0 f i aarrayiterator.obj
 0001:000610f0       ??0?$CvArrayIterator@F@@QAE@PAF0@Z 004620f0 f i aarrayiterator.obj
 0001:00061120       ??0?$CvArrayIterator@F@@QAE@ABV0@@Z 00462120 f i aarrayiterator.obj
 0001:00061150       ?init@?$CvArrayIterator@F@@QAEXPAF0@Z 00462150 f i aarrayiterator.obj
 0001:00061180       ??8?$CvArrayIterator@F@@QBE_NABV0@@Z 00462180 f i aarrayiterator.obj
 0001:000611d0       ??9?$CvArrayIterator@F@@QBE_NABV0@@Z 004621d0 f i aarrayiterator.obj
 0001:00061220       ?get_begin@?$CvArrayIterator@F@@QAEPAFXZ 00462220 f i aarrayiterator.obj
 0001:00061240       ?get_current@?$CvArrayIterator@F@@QAEPAFXZ 00462240 f i aarrayiterator.obj
 0001:00061260       ?InitABackProject@@YAXXZ   00462260 f   abackproject.obj
 0001:00061550       ??0?$CvArray@H@@QAE@XZ     00462550 f i abackproject.obj
 0001:00061590       ??0?$CvArray@M@@QAE@XZ     00462590 f i abackproject.obj
 0001:000615d0       ??0?$CvArray@F@@QAE@XZ     004625d0 f i abackproject.obj
 0001:00061610       ??0?$CvTree@HH@@QAE@XZ     00462610 f i abackproject.obj
 0001:00061650       ??0?$CvTree@MH@@QAE@XZ     00462650 f i abackproject.obj
 0001:00061690       ??0?$CvTree@FH@@QAE@XZ     00462690 f i abackproject.obj
 0001:000616d0       ?foaCvBackProject@@YAHV?$CvArray@H@@HHH@Z 004626d0 f i abackproject.obj
 0001:00061b60       ??1?$CvArray@H@@QAE@XZ     00462b60 f i abackproject.obj
 0001:00061bb0       ?foaCvBackProject@@YAHV?$CvArray@M@@MMH@Z 00462bb0 f i abackproject.obj
 0001:00062040       ??1?$CvArray@M@@QAE@XZ     00463040 f i abackproject.obj
 0001:00062090       ?foaCvBackProject@@YAHV?$CvArray@F@@FFH@Z 00463090 f i abackproject.obj
 0001:00062510       ??1?$CvArray@F@@QAE@XZ     00463510 f i abackproject.obj
 0001:00062560       ??0?$_CvNodeManager@U?$_CvTreeNode@HH@@@@QAE@XZ 00463560 f i abackproject.obj
 0001:000625a0       ?foaCvBackProject@@YAHV?$CvTree@HH@@HHH@Z 004635a0 f i abackproject.obj
 0001:00062a30       ??1?$CvTree@HH@@QAE@XZ     00463a30 f i abackproject.obj
 0001:00062a60       ??1?$_CvNodeManager@U?$_CvTreeNode@HH@@@@QAE@XZ 00463a60 f i abackproject.obj
 0001:00062a90       ?destroy@?$_CvNodeManager@U?$_CvTreeNode@HH@@@@QAEXXZ 00463a90 f i abackproject.obj
 0001:00062b20       ??0?$_CvNodeManager@U?$_CvTreeNode@MH@@@@QAE@XZ 00463b20 f i abackproject.obj
 0001:00062b60       ?foaCvBackProject@@YAHV?$CvTree@MH@@MMH@Z 00463b60 f i abackproject.obj
 0001:00062ff0       ??1?$CvTree@MH@@QAE@XZ     00463ff0 f i abackproject.obj
 0001:00063020       ??1?$_CvNodeManager@U?$_CvTreeNode@MH@@@@QAE@XZ 00464020 f i abackproject.obj
 0001:00063050       ?destroy@?$_CvNodeManager@U?$_CvTreeNode@MH@@@@QAEXXZ 00464050 f i abackproject.obj
 0001:000630e0       ??0?$_CvNodeManager@U?$_CvTreeNode@FH@@@@QAE@XZ 004640e0 f i abackproject.obj
 0001:00063120       ?foaCvBackProject@@YAHV?$CvTree@FH@@FFH@Z 00464120 f i abackproject.obj
 0001:000635a0       ??1?$CvTree@FH@@QAE@XZ     004645a0 f i abackproject.obj
 0001:000635d0       ??1?$_CvNodeManager@U?$_CvTreeNode@FH@@@@QAE@XZ 004645d0 f i abackproject.obj
 0001:00063600       ?destroy@?$_CvNodeManager@U?$_CvTreeNode@FH@@@@QAEXXZ 00464600 f i abackproject.obj
 0001:00063690       ??0?$CVHistogram@V?$CvArray@H@@@@QAE@HHHHHH@Z 00464690 f i abackproject.obj
 0001:00063710       ??1?$CVHistogram@V?$CvArray@H@@@@QAE@XZ 00464710 f i abackproject.obj
 0001:00063770       ??0?$CVHistogram@V?$CvArray@M@@@@QAE@HHHHHH@Z 00464770 f i abackproject.obj
 0001:000637f0       ??1?$CVHistogram@V?$CvArray@M@@@@QAE@XZ 004647f0 f i abackproject.obj
 0001:00063850       ??0?$CVHistogram@V?$CvArray@F@@@@QAE@HHHHHH@Z 00464850 f i abackproject.obj
 0001:000638d0       ??1?$CVHistogram@V?$CvArray@F@@@@QAE@XZ 004648d0 f i abackproject.obj
 0001:00063930       ??0?$CVHistogram@V?$CvTree@HH@@@@QAE@HHHHHH@Z 00464930 f i abackproject.obj
 0001:000639b0       ??1?$CVHistogram@V?$CvTree@HH@@@@QAE@XZ 004649b0 f i abackproject.obj
 0001:00063a10       ??0?$CVHistogram@V?$CvTree@MH@@@@QAE@HHHHHH@Z 00464a10 f i abackproject.obj
 0001:00063a90       ??1?$CVHistogram@V?$CvTree@MH@@@@QAE@XZ 00464a90 f i abackproject.obj
 0001:00063af0       ??0?$CVHistogram@V?$CvTree@FH@@@@QAE@HHHHHH@Z 00464af0 f i abackproject.obj
 0001:00063b70       ??1?$CVHistogram@V?$CvTree@FH@@@@QAE@XZ 00464b70 f i abackproject.obj
 0001:00063bd0       ?destroy@?$CVHistogram@V?$CvArray@H@@@@QAEXXZ 00464bd0 f i abackproject.obj
 0001:00063c00       ?destroy@?$CVHistogram@V?$CvArray@M@@@@QAEXXZ 00464c00 f i abackproject.obj
 0001:00063c30       ?destroy@?$CVHistogram@V?$CvArray@F@@@@QAEXXZ 00464c30 f i abackproject.obj
 0001:00063c60       ?destroy@?$CVHistogram@V?$CvTree@HH@@@@QAEXXZ 00464c60 f i abackproject.obj
 0001:00063c90       ?destroy@?$CVHistogram@V?$CvTree@MH@@@@QAEXXZ 00464c90 f i abackproject.obj
 0001:00063cc0       ?destroy@?$CVHistogram@V?$CvTree@FH@@@@QAEXXZ 00464cc0 f i abackproject.obj
 0001:00063cf0       ?destroy@?$CvTree@HH@@QAEXXZ 00464cf0 f i abackproject.obj
 0001:00063d30       ?destroy@?$CvTree@MH@@QAEXXZ 00464d30 f i abackproject.obj
 0001:00063d70       ?destroy@?$CvTree@FH@@QAEXXZ 00464d70 f i abackproject.obj
 0001:00063db0       ?destroy@?$CvArray@H@@QAEXXZ 00464db0 f i abackproject.obj
 0001:00063e10       ?create@?$CVHistogram@V?$CvArray@H@@@@QAEXHHHHHH@Z 00464e10 f i abackproject.obj
 0001:00063fc0       ?calc_histogram_from_images@@YAXAAV?$CVHistogram@V?$CvArray@H@@@@PAPAHUCvSize@@H1@Z 00464fc0 f i abackproject.obj
 0001:00064150       ?calc_back_project_from_images@@YAXAAV?$CVHistogram@V?$CvArray@H@@@@PAPAHUCvSize@@H1PAHHH@Z 00465150 f i abackproject.obj
 0001:00064350       ?destroy@?$CvArray@M@@QAEXXZ 00465350 f i abackproject.obj
 0001:000643b0       ?create@?$CVHistogram@V?$CvArray@M@@@@QAEXHHHHHH@Z 004653b0 f i abackproject.obj
 0001:00064560       ?calc_histogram_from_images@@YAXAAV?$CVHistogram@V?$CvArray@M@@@@PAPAMUCvSize@@H1@Z 00465560 f i abackproject.obj
 0001:00064700       ?calc_back_project_from_images@@YAXAAV?$CVHistogram@V?$CvArray@M@@@@PAPAMUCvSize@@H1PAHHH@Z 00465700 f i abackproject.obj
 0001:00064910       ?destroy@?$CvArray@F@@QAEXXZ 00465910 f i abackproject.obj
 0001:00064970       ?create@?$CVHistogram@V?$CvArray@F@@@@QAEXHHHHHH@Z 00465970 f i abackproject.obj
 0001:00064b20       ?calc_histogram_from_images@@YAXAAV?$CVHistogram@V?$CvArray@F@@@@PAPAFUCvSize@@H1@Z 00465b20 f i abackproject.obj
 0001:00064cc0       ?calc_back_project_from_images@@YAXAAV?$CVHistogram@V?$CvArray@F@@@@PAPAFUCvSize@@H1PAHHH@Z 00465cc0 f i abackproject.obj
 0001:00064ed0       ?create@?$CVHistogram@V?$CvTree@HH@@@@QAEXHHHHHH@Z 00465ed0 f i abackproject.obj
 0001:00065080       ?calc_histogram_from_images@@YAXAAV?$CVHistogram@V?$CvTree@HH@@@@PAPAHUCvSize@@H1@Z 00466080 f i abackproject.obj
 0001:00065210       ?calc_back_project_from_images@@YAXAAV?$CVHistogram@V?$CvTree@HH@@@@PAPAHUCvSize@@H1PAHHH@Z 00466210 f i abackproject.obj
 0001:00065410       ?create@?$CVHistogram@V?$CvTree@MH@@@@QAEXHHHHHH@Z 00466410 f i abackproject.obj
 0001:000655c0       ?calc_histogram_from_images@@YAXAAV?$CVHistogram@V?$CvTree@MH@@@@PAPAMUCvSize@@H1@Z 004665c0 f i abackproject.obj
 0001:00065760       ?calc_back_project_from_images@@YAXAAV?$CVHistogram@V?$CvTree@MH@@@@PAPAMUCvSize@@H1PAHHH@Z 00466760 f i abackproject.obj
 0001:00065970       ?create@?$CVHistogram@V?$CvTree@FH@@@@QAEXHHHHHH@Z 00466970 f i abackproject.obj
 0001:00065b20       ?calc_histogram_from_images@@YAXAAV?$CVHistogram@V?$CvTree@FH@@@@PAPAFUCvSize@@H1@Z 00466b20 f i abackproject.obj
 0001:00065cc0       ?calc_back_project_from_images@@YAXAAV?$CVHistogram@V?$CvTree@FH@@@@PAPAFUCvSize@@H1PAHHH@Z 00466cc0 f i abackproject.obj
 0001:00065ed0       ?clear@?$CvTree@HH@@QAEXXZ 00466ed0 f i abackproject.obj
 0001:00065f10       ?set_size@?$CvTree@HH@@QAEXH@Z 00466f10 f i abackproject.obj
 0001:00065f30       ?clear@?$CvTree@MH@@QAEXXZ 00466f30 f i abackproject.obj
 0001:00065f70       ?set_size@?$CvTree@MH@@QAEXH@Z 00466f70 f i abackproject.obj
 0001:00065f90       ?clear@?$CvTree@FH@@QAEXXZ 00466f90 f i abackproject.obj
 0001:00065fd0       ?set_size@?$CvTree@FH@@QAEXH@Z 00466fd0 f i abackproject.obj
 0001:00065ff0       ?get_dims@?$CVHistogram@V?$CvArray@H@@@@QBEHXZ 00466ff0 f i abackproject.obj
 0001:00066010       ?get_dim_size@?$CVHistogram@V?$CvArray@H@@@@QBEHH@Z 00467010 f i abackproject.obj
 0001:00066030       ?get_dims@?$CVHistogram@V?$CvArray@M@@@@QBEHXZ 00467030 f i abackproject.obj
 0001:00066050       ?get_dim_size@?$CVHistogram@V?$CvArray@M@@@@QBEHH@Z 00467050 f i abackproject.obj
 0001:00066070       ?get_dims@?$CVHistogram@V?$CvArray@F@@@@QBEHXZ 00467070 f i abackproject.obj
 0001:00066090       ?get_dim_size@?$CVHistogram@V?$CvArray@F@@@@QBEHH@Z 00467090 f i abackproject.obj
 0001:000660b0       ?get_dims@?$CVHistogram@V?$CvTree@HH@@@@QBEHXZ 004670b0 f i abackproject.obj
 0001:000660d0       ?get_dim_size@?$CVHistogram@V?$CvTree@HH@@@@QBEHH@Z 004670d0 f i abackproject.obj
 0001:000660f0       ?get_dims@?$CVHistogram@V?$CvTree@MH@@@@QBEHXZ 004670f0 f i abackproject.obj
 0001:00066110       ?get_dim_size@?$CVHistogram@V?$CvTree@MH@@@@QBEHH@Z 00467110 f i abackproject.obj
 0001:00066130       ?get_dims@?$CVHistogram@V?$CvTree@FH@@@@QBEHXZ 00467130 f i abackproject.obj
 0001:00066150       ?get_dim_size@?$CVHistogram@V?$CvTree@FH@@@@QBEHH@Z 00467150 f i abackproject.obj
 0001:00066170       ?clear@?$CvArray@H@@QAEXXZ 00467170 f i abackproject.obj
 0001:000661d0       ?set_size@?$CvArray@H@@QAEXH@Z 004671d0 f i abackproject.obj
 0001:000662f0       ?query@?$CVHistogram@V?$CvArray@H@@@@QBEHPBH@Z 004672f0 f i abackproject.obj
 0001:00066460       ??R?$CVHistogram@V?$CvArray@H@@@@QAEAAHPBH@Z 00467460 f i abackproject.obj
 0001:000665e0       ?clear@?$CvArray@M@@QAEXXZ 004675e0 f i abackproject.obj
 0001:00066640       ?set_size@?$CvArray@M@@QAEXH@Z 00467640 f i abackproject.obj
 0001:00066760       ?query@?$CVHistogram@V?$CvArray@M@@@@QBEMPBH@Z 00467760 f i abackproject.obj
 0001:000668e0       ??R?$CVHistogram@V?$CvArray@M@@@@QAEAAMPBH@Z 004678e0 f i abackproject.obj
 0001:00066a60       ?clear@?$CvArray@F@@QAEXXZ 00467a60 f i abackproject.obj
 0001:00066ac0       ?set_size@?$CvArray@F@@QAEXH@Z 00467ac0 f i abackproject.obj
 0001:00066be0       ?query@?$CVHistogram@V?$CvArray@F@@@@QBEFPBH@Z 00467be0 f i abackproject.obj
 0001:00066d50       ??R?$CVHistogram@V?$CvArray@F@@@@QAEAAFPBH@Z 00467d50 f i abackproject.obj
 0001:00066ed0       ?query@?$CVHistogram@V?$CvTree@HH@@@@QBEHPBH@Z 00467ed0 f i abackproject.obj
 0001:00067040       ??R?$CVHistogram@V?$CvTree@HH@@@@QAEAAHPBH@Z 00468040 f i abackproject.obj
 0001:000671c0       ?query@?$CVHistogram@V?$CvTree@MH@@@@QBEMPBH@Z 004681c0 f i abackproject.obj
 0001:00067340       ??R?$CVHistogram@V?$CvTree@MH@@@@QAEAAMPBH@Z 00468340 f i abackproject.obj
 0001:000674c0       ?query@?$CVHistogram@V?$CvTree@FH@@@@QBEFPBH@Z 004684c0 f i abackproject.obj
 0001:00067630       ??R?$CVHistogram@V?$CvTree@FH@@@@QAEAAFPBH@Z 00468630 f i abackproject.obj
 0001:000677b0       ?clear@?$_CvNodeManager@U?$_CvTreeNode@HH@@@@QAEXXZ 004687b0 f i abackproject.obj
 0001:00067860       ?clear@?$_CvNodeManager@U?$_CvTreeNode@MH@@@@QAEXXZ 00468860 f i abackproject.obj
 0001:00067910       ?clear@?$_CvNodeManager@U?$_CvTreeNode@FH@@@@QAEXXZ 00468910 f i abackproject.obj
 0001:000679c0       ?next@?$_CvTreeNode@HH@@QAEAAPAU1@XZ 004689c0 f i abackproject.obj
 0001:000679e0       ?next@?$_CvTreeNode@MH@@QAEAAPAU1@XZ 004689e0 f i abackproject.obj
 0001:00067a00       ?next@?$_CvTreeNode@FH@@QAEAAPAU1@XZ 00468a00 f i abackproject.obj
 0001:00067a20       ?query@?$CVHistogram@V?$CvArray@H@@@@QBEHH@Z 00468a20 f i abackproject.obj
 0001:00067a50       ?query@?$CVHistogram@V?$CvArray@H@@@@QBEHHH@Z 00468a50 f i abackproject.obj
 0001:00067a90       ?query@?$CVHistogram@V?$CvArray@H@@@@QBEHHHH@Z 00468a90 f i abackproject.obj
 0001:00067ae0       ?query@?$CVHistogram@V?$CvArray@H@@@@QBEHHHHHHH@Z 00468ae0 f i abackproject.obj
 0001:00067b30       ??A?$CVHistogram@V?$CvArray@H@@@@QAEAAHH@Z 00468b30 f i abackproject.obj
 0001:00067b60       ??R?$CVHistogram@V?$CvArray@H@@@@QAEAAHH@Z 00468b60 f i abackproject.obj
 0001:00067b90       ??R?$CVHistogram@V?$CvArray@H@@@@QAEAAHHH@Z 00468b90 f i abackproject.obj
 0001:00067bd0       ??R?$CVHistogram@V?$CvArray@H@@@@QAEAAHHHH@Z 00468bd0 f i abackproject.obj
 0001:00067c20       ??R?$CVHistogram@V?$CvArray@H@@@@QAEAAHHHHHHH@Z 00468c20 f i abackproject.obj
 0001:00067c70       ?query@?$CVHistogram@V?$CvArray@M@@@@QBEMH@Z 00468c70 f i abackproject.obj
 0001:00067ca0       ?query@?$CVHistogram@V?$CvArray@M@@@@QBEMHH@Z 00468ca0 f i abackproject.obj
 0001:00067ce0       ?query@?$CVHistogram@V?$CvArray@M@@@@QBEMHHH@Z 00468ce0 f i abackproject.obj
 0001:00067d30       ?query@?$CVHistogram@V?$CvArray@M@@@@QBEMHHHHHH@Z 00468d30 f i abackproject.obj
 0001:00067d80       ??A?$CVHistogram@V?$CvArray@M@@@@QAEAAMH@Z 00468d80 f i abackproject.obj
 0001:00067db0       ??R?$CVHistogram@V?$CvArray@M@@@@QAEAAMH@Z 00468db0 f i abackproject.obj
 0001:00067de0       ??R?$CVHistogram@V?$CvArray@M@@@@QAEAAMHH@Z 00468de0 f i abackproject.obj
 0001:00067e20       ??R?$CVHistogram@V?$CvArray@M@@@@QAEAAMHHH@Z 00468e20 f i abackproject.obj
 0001:00067e70       ??R?$CVHistogram@V?$CvArray@M@@@@QAEAAMHHHHHH@Z 00468e70 f i abackproject.obj
 0001:00067ec0       ?query@?$CVHistogram@V?$CvArray@F@@@@QBEFH@Z 00468ec0 f i abackproject.obj
 0001:00067ef0       ?query@?$CVHistogram@V?$CvArray@F@@@@QBEFHH@Z 00468ef0 f i abackproject.obj
 0001:00067f30       ?query@?$CVHistogram@V?$CvArray@F@@@@QBEFHHH@Z 00468f30 f i abackproject.obj
 0001:00067f80       ?query@?$CVHistogram@V?$CvArray@F@@@@QBEFHHHHHH@Z 00468f80 f i abackproject.obj
 0001:00067fd0       ??A?$CVHistogram@V?$CvArray@F@@@@QAEAAFH@Z 00468fd0 f i abackproject.obj
 0001:00068000       ??R?$CVHistogram@V?$CvArray@F@@@@QAEAAFH@Z 00469000 f i abackproject.obj
 0001:00068030       ??R?$CVHistogram@V?$CvArray@F@@@@QAEAAFHH@Z 00469030 f i abackproject.obj
 0001:00068070       ??R?$CVHistogram@V?$CvArray@F@@@@QAEAAFHHH@Z 00469070 f i abackproject.obj
 0001:000680c0       ??R?$CVHistogram@V?$CvArray@F@@@@QAEAAFHHHHHH@Z 004690c0 f i abackproject.obj
 0001:00068110       ?query@?$CVHistogram@V?$CvTree@HH@@@@QBEHH@Z 00469110 f i abackproject.obj
 0001:00068140       ?query@?$CVHistogram@V?$CvTree@HH@@@@QBEHHH@Z 00469140 f i abackproject.obj
 0001:00068180       ?query@?$CVHistogram@V?$CvTree@HH@@@@QBEHHHH@Z 00469180 f i abackproject.obj
 0001:000681d0       ?query@?$CVHistogram@V?$CvTree@HH@@@@QBEHHHHHHH@Z 004691d0 f i abackproject.obj
 0001:00068220       ??A?$CVHistogram@V?$CvTree@HH@@@@QAEAAHH@Z 00469220 f i abackproject.obj
 0001:00068250       ??R?$CVHistogram@V?$CvTree@HH@@@@QAEAAHH@Z 00469250 f i abackproject.obj
 0001:00068280       ??R?$CVHistogram@V?$CvTree@HH@@@@QAEAAHHH@Z 00469280 f i abackproject.obj
 0001:000682c0       ??R?$CVHistogram@V?$CvTree@HH@@@@QAEAAHHHH@Z 004692c0 f i abackproject.obj
 0001:00068310       ??R?$CVHistogram@V?$CvTree@HH@@@@QAEAAHHHHHHH@Z 00469310 f i abackproject.obj
 0001:00068360       ?query@?$CVHistogram@V?$CvTree@MH@@@@QBEMH@Z 00469360 f i abackproject.obj
 0001:00068390       ?query@?$CVHistogram@V?$CvTree@MH@@@@QBEMHH@Z 00469390 f i abackproject.obj
 0001:000683d0       ?query@?$CVHistogram@V?$CvTree@MH@@@@QBEMHHH@Z 004693d0 f i abackproject.obj
 0001:00068420       ?query@?$CVHistogram@V?$CvTree@MH@@@@QBEMHHHHHH@Z 00469420 f i abackproject.obj
 0001:00068470       ??A?$CVHistogram@V?$CvTree@MH@@@@QAEAAMH@Z 00469470 f i abackproject.obj
 0001:000684a0       ??R?$CVHistogram@V?$CvTree@MH@@@@QAEAAMH@Z 004694a0 f i abackproject.obj
 0001:000684d0       ??R?$CVHistogram@V?$CvTree@MH@@@@QAEAAMHH@Z 004694d0 f i abackproject.obj
 0001:00068510       ??R?$CVHistogram@V?$CvTree@MH@@@@QAEAAMHHH@Z 00469510 f i abackproject.obj
 0001:00068560       ??R?$CVHistogram@V?$CvTree@MH@@@@QAEAAMHHHHHH@Z 00469560 f i abackproject.obj
 0001:000685b0       ?query@?$CVHistogram@V?$CvTree@FH@@@@QBEFH@Z 004695b0 f i abackproject.obj
 0001:000685e0       ?query@?$CVHistogram@V?$CvTree@FH@@@@QBEFHH@Z 004695e0 f i abackproject.obj
 0001:00068620       ?query@?$CVHistogram@V?$CvTree@FH@@@@QBEFHHH@Z 00469620 f i abackproject.obj
 0001:00068670       ?query@?$CVHistogram@V?$CvTree@FH@@@@QBEFHHHHHH@Z 00469670 f i abackproject.obj
 0001:000686c0       ??A?$CVHistogram@V?$CvTree@FH@@@@QAEAAFH@Z 004696c0 f i abackproject.obj
 0001:000686f0       ??R?$CVHistogram@V?$CvTree@FH@@@@QAEAAFH@Z 004696f0 f i abackproject.obj
 0001:00068720       ??R?$CVHistogram@V?$CvTree@FH@@@@QAEAAFHH@Z 00469720 f i abackproject.obj
 0001:00068760       ??R?$CVHistogram@V?$CvTree@FH@@@@QAEAAFHHH@Z 00469760 f i abackproject.obj
 0001:000687b0       ??R?$CVHistogram@V?$CvTree@FH@@@@QAEAAFHHHHHH@Z 004697b0 f i abackproject.obj
 0001:00068800       ?get_node@?$CvNodeIterator@U?$_CvTreeNode@HH@@@@QBEPAU?$_CvTreeNode@HH@@XZ 00469800 f i abackproject.obj
 0001:00068830       ??0?$CvNodeIterator@U?$_CvTreeNode@HH@@@@QAE@PAU?$_CvNodeBlock@U?$_CvTreeNode@HH@@@@@Z 00469830 f i abackproject.obj
 0001:00068860       ??0?$CvNodeIterator@U?$_CvTreeNode@HH@@@@QAE@PAU?$_CvNodeBlock@U?$_CvTreeNode@HH@@@@H@Z 00469860 f i abackproject.obj
 0001:00068890       ??9?$CvNodeIterator@U?$_CvTreeNode@HH@@@@QBE_NABV0@@Z 00469890 f i abackproject.obj
 0001:000688e0       ?get_node@?$CvNodeIterator@U?$_CvTreeNode@MH@@@@QBEPAU?$_CvTreeNode@MH@@XZ 004698e0 f i abackproject.obj
 0001:00068910       ??0?$CvNodeIterator@U?$_CvTreeNode@MH@@@@QAE@PAU?$_CvNodeBlock@U?$_CvTreeNode@MH@@@@@Z 00469910 f i abackproject.obj
 0001:00068940       ??0?$CvNodeIterator@U?$_CvTreeNode@MH@@@@QAE@PAU?$_CvNodeBlock@U?$_CvTreeNode@MH@@@@H@Z 00469940 f i abackproject.obj
 0001:00068970       ??9?$CvNodeIterator@U?$_CvTreeNode@MH@@@@QBE_NABV0@@Z 00469970 f i abackproject.obj
 0001:000689c0       ?get_node@?$CvNodeIterator@U?$_CvTreeNode@FH@@@@QBEPAU?$_CvTreeNode@FH@@XZ 004699c0 f i abackproject.obj
 0001:000689f0       ??0?$CvNodeIterator@U?$_CvTreeNode@FH@@@@QAE@PAU?$_CvNodeBlock@U?$_CvTreeNode@FH@@@@@Z 004699f0 f i abackproject.obj
 0001:00068a20       ??0?$CvNodeIterator@U?$_CvTreeNode@FH@@@@QAE@PAU?$_CvNodeBlock@U?$_CvTreeNode@FH@@@@H@Z 00469a20 f i abackproject.obj
 0001:00068a50       ??9?$CvNodeIterator@U?$_CvTreeNode@FH@@@@QBE_NABV0@@Z 00469a50 f i abackproject.obj
 0001:00068aa0       ?query@?$CvArray@H@@QBEHH@Z 00469aa0 f i abackproject.obj
 0001:00068b00       ??A?$CvArray@H@@QAEAAHH@Z  00469b00 f i abackproject.obj
 0001:00068b60       ?query@?$CvArray@M@@QBEMH@Z 00469b60 f i abackproject.obj
 0001:00068bc0       ??A?$CvArray@M@@QAEAAMH@Z  00469bc0 f i abackproject.obj
 0001:00068c20       ?query@?$CvArray@F@@QBEFH@Z 00469c20 f i abackproject.obj
 0001:00068c90       ??A?$CvArray@F@@QAEAAFH@Z  00469c90 f i abackproject.obj
 0001:00068cf0       ??A?$CvTree@HH@@QAEAAHH@Z  00469cf0 f i abackproject.obj
 0001:00068d60       ??A?$CvTree@MH@@QAEAAMH@Z  00469d60 f i abackproject.obj
 0001:00068dd0       ??A?$CvTree@FH@@QAEAAFH@Z  00469dd0 f i abackproject.obj
 0001:00068e40       ?get_idx@?$CVHistogram@V?$CvArray@H@@@@IBEHHHHHHH@Z 00469e40 f i abackproject.obj
 0001:00068ea0       ?get_idx@?$CVHistogram@V?$CvArray@M@@@@IBEHHHHHHH@Z 00469ea0 f i abackproject.obj
 0001:00068f00       ?get_idx@?$CVHistogram@V?$CvArray@F@@@@IBEHHHHHHH@Z 00469f00 f i abackproject.obj
 0001:00068f60       ?get_idx@?$CVHistogram@V?$CvTree@HH@@@@IBEHHHHHHH@Z 00469f60 f i abackproject.obj
 0001:00068fc0       ?get_idx@?$CVHistogram@V?$CvTree@MH@@@@IBEHHHHHHH@Z 00469fc0 f i abackproject.obj
 0001:00069020       ?get_idx@?$CVHistogram@V?$CvTree@FH@@@@IBEHHHHHHH@Z 0046a020 f i abackproject.obj
 0001:00069080       ??E?$CvNodeIterator@U?$_CvTreeNode@HH@@@@QAE?BV0@H@Z 0046a080 f i abackproject.obj
 0001:00069110       ??E?$CvNodeIterator@U?$_CvTreeNode@MH@@@@QAE?BV0@H@Z 0046a110 f i abackproject.obj
 0001:000691a0       ??E?$CvNodeIterator@U?$_CvTreeNode@FH@@@@QAE?BV0@H@Z 0046a1a0 f i abackproject.obj
 0001:00069230       ?query@?$CvTree@HH@@QBEHH@Z 0046a230 f i abackproject.obj
 0001:000692d0       ?create_node@?$CvTree@HH@@IAEPAU?$_CvTreeNode@HH@@H@Z 0046a2d0 f i abackproject.obj
 0001:00069860       ?query@?$CvTree@MH@@QBEMH@Z 0046a860 f i abackproject.obj
 0001:00069900       ?create_node@?$CvTree@MH@@IAEPAU?$_CvTreeNode@MH@@H@Z 0046a900 f i abackproject.obj
 0001:00069e90       ?query@?$CvTree@FH@@QBEFH@Z 0046ae90 f i abackproject.obj
 0001:00069f30       ?create_node@?$CvTree@FH@@IAEPAU?$_CvTreeNode@FH@@H@Z 0046af30 f i abackproject.obj
 0001:0006a4c0       ?new_node@?$_CvNodeManager@U?$_CvTreeNode@HH@@@@QAEPAU?$_CvTreeNode@HH@@XZ 0046b4c0 f i abackproject.obj
 0001:0006a540       ?new_node@?$_CvNodeManager@U?$_CvTreeNode@MH@@@@QAEPAU?$_CvTreeNode@MH@@XZ 0046b540 f i abackproject.obj
 0001:0006a5c0       ?new_node@?$_CvNodeManager@U?$_CvTreeNode@FH@@@@QAEPAU?$_CvTreeNode@FH@@XZ 0046b5c0 f i abackproject.obj
 0001:0006a640       ?allocate_new_block@?$_CvNodeManager@U?$_CvTreeNode@HH@@@@IAEPAU?$_CvTreeNode@HH@@XZ 0046b640 f i abackproject.obj
 0001:0006a7b0       ?allocate_new_block@?$_CvNodeManager@U?$_CvTreeNode@MH@@@@IAEPAU?$_CvTreeNode@MH@@XZ 0046b7b0 f i abackproject.obj
 0001:0006a920       ?allocate_new_block@?$_CvNodeManager@U?$_CvTreeNode@FH@@@@IAEPAU?$_CvTreeNode@FH@@XZ 0046b920 f i abackproject.obj
 0001:0006aa90       ??A?$_CvNodeBlock@U?$_CvTreeNode@HH@@@@QAEAAU?$_CvTreeNode@HH@@H@Z 0046ba90 f i abackproject.obj
 0001:0006aab0       ??A?$_CvNodeBlock@U?$_CvTreeNode@MH@@@@QAEAAU?$_CvTreeNode@MH@@H@Z 0046bab0 f i abackproject.obj
 0001:0006aad0       ??A?$_CvNodeBlock@U?$_CvTreeNode@FH@@@@QAEAAU?$_CvTreeNode@FH@@H@Z 0046bad0 f i abackproject.obj
 0001:0006aaf0       ??0?$_CvNodeBlock@U?$_CvTreeNode@HH@@@@QAE@XZ 0046baf0 f i abackproject.obj
 0001:0006ab80       ??0?$_CvNodeBlock@U?$_CvTreeNode@MH@@@@QAE@XZ 0046bb80 f i abackproject.obj
 0001:0006ac10       ??0?$_CvNodeBlock@U?$_CvTreeNode@FH@@@@QAE@XZ 0046bc10 f i abackproject.obj
 0001:0006aca0       ??_H@YGXPAXIHP6EX0@Z@Z     0046bca0 f i abackproject.obj
 0001:0006ace0       ??0?$_CvTreeNode@HH@@QAE@XZ 0046bce0 f i abackproject.obj
 0001:0006ad30       ??0?$_CvTreeNode@MH@@QAE@XZ 0046bd30 f i abackproject.obj
 0001:0006ad80       ??0?$_CvTreeNode@FH@@QAE@XZ 0046bd80 f i abackproject.obj
 0001:0006add0       ?InitACvCalculate@@YAXXZ   0046bdd0 f   acalculate.obj
 0001:0006b0b0       ?foaCvCalculate@@YAHV?$CvArray@H@@HH@Z 0046c0b0 f i acalculate.obj
 0001:0006b590       ?foaCvCalculate@@YAHV?$CvArray@M@@MM@Z 0046c590 f i acalculate.obj
 0001:0006baa0       ?foaCvCalculate@@YAHV?$CvArray@F@@FF@Z 0046caa0 f i acalculate.obj
 0001:0006bf70       ?foaCvCalculate@@YAHV?$CvTree@HH@@HH@Z 0046cf70 f i acalculate.obj
 0001:0006c450       ?foaCvCalculate@@YAHV?$CvTree@MH@@MM@Z 0046d450 f i acalculate.obj
 0001:0006c960       ?foaCvCalculate@@YAHV?$CvTree@FH@@FF@Z 0046d960 f i acalculate.obj
 0001:0006ce30       ?InitAHistogram@@YAXXZ     0046de30 f   ahistogram.obj
 0001:0006d1f0       ?foaHistogram@@YAHV?$CvArray@H@@0@Z 0046e1f0 f i ahistogram.obj
 0001:0006dfe0       ?foaHistogram@@YAHV?$CvArray@M@@0@Z 0046efe0 f i ahistogram.obj
 0001:0006eee0       ?foaHistogram@@YAHV?$CvArray@F@@0@Z 0046fee0 f i ahistogram.obj
 0001:0006fcf0       ?foaHistogram@@YAHV?$CvTree@HH@@0@Z 00470cf0 f i ahistogram.obj
 0001:00070ae0       ?foaHistogram@@YAHV?$CvTree@MH@@0@Z 00471ae0 f i ahistogram.obj
 0001:000719e0       ?foaHistogram@@YAHV?$CvTree@FH@@0@Z 004729e0 f i ahistogram.obj
 0001:000727f0       ?clear@?$CVHistogram@V?$CvArray@H@@@@QAEXXZ 004737f0 f i ahistogram.obj
 0001:00072820       ?clear@?$CVHistogram@V?$CvArray@M@@@@QAEXXZ 00473820 f i ahistogram.obj
 0001:00072850       ?clear@?$CVHistogram@V?$CvArray@F@@@@QAEXXZ 00473850 f i ahistogram.obj
 0001:00072880       ?clear@?$CVHistogram@V?$CvTree@HH@@@@QAEXXZ 00473880 f i ahistogram.obj
 0001:000728b0       ?clear@?$CVHistogram@V?$CvTree@MH@@@@QAEXXZ 004738b0 f i ahistogram.obj
 0001:000728e0       ?clear@?$CVHistogram@V?$CvTree@FH@@@@QAEXXZ 004738e0 f i ahistogram.obj
 0001:00072910       ?normalize@?$CVHistogram@V?$CvArray@H@@@@QBEXAAV1@H@Z 00473910 f i ahistogram.obj
 0001:00072a40       ?normalize@?$CVHistogram@V?$CvArray@H@@@@QAEXH@Z 00473a40 f i ahistogram.obj
 0001:00072b70       ?threshold@?$CVHistogram@V?$CvArray@H@@@@QAEXHAAV1@@Z 00473b70 f i ahistogram.obj
 0001:00072c30       ?threshold@?$CVHistogram@V?$CvArray@H@@@@QAEXH@Z 00473c30 f i ahistogram.obj
 0001:00072ce0       ??Z?$CVHistogram@V?$CvArray@H@@@@QAEAAV0@H@Z 00473ce0 f i ahistogram.obj
 0001:00072d90       ??X?$CVHistogram@V?$CvArray@H@@@@QAEAAV0@H@Z 00473d90 f i ahistogram.obj
 0001:00072e30       ?mean@?$CVHistogram@V?$CvArray@H@@@@QBENXZ 00473e30 f i ahistogram.obj
 0001:00072ee0       ??4?$CVHistogram@V?$CvArray@H@@@@QAEAAV0@ABV0@@Z 00473ee0 f i ahistogram.obj
 0001:00072fc0       ?operate_with@?$CVHistogram@V?$CvArray@H@@@@QBENABV1@Voperation@@@Z 00473fc0 f i ahistogram.obj
 0001:00073000       ?normalize@?$CVHistogram@V?$CvArray@M@@@@QBEXAAV1@M@Z 00474000 f i ahistogram.obj
 0001:00073130       ?normalize@?$CVHistogram@V?$CvArray@M@@@@QAEXM@Z 00474130 f i ahistogram.obj
 0001:00073260       ?threshold@?$CVHistogram@V?$CvArray@M@@@@QAEXMAAV1@@Z 00474260 f i ahistogram.obj
 0001:00073320       ?threshold@?$CVHistogram@V?$CvArray@M@@@@QAEXM@Z 00474320 f i ahistogram.obj
 0001:000733d0       ??Z?$CVHistogram@V?$CvArray@M@@@@QAEAAV0@M@Z 004743d0 f i ahistogram.obj
 0001:00073490       ??X?$CVHistogram@V?$CvArray@M@@@@QAEAAV0@M@Z 00474490 f i ahistogram.obj
 0001:00073530       ?mean@?$CVHistogram@V?$CvArray@M@@@@QBENXZ 00474530 f i ahistogram.obj
 0001:000735e0       ??4?$CVHistogram@V?$CvArray@M@@@@QAEAAV0@ABV0@@Z 004745e0 f i ahistogram.obj
 0001:000736c0       ?operate_with@?$CVHistogram@V?$CvArray@M@@@@QBENABV1@Voperation@@@Z 004746c0 f i ahistogram.obj
 0001:00073700       ?normalize@?$CVHistogram@V?$CvArray@F@@@@QBEXAAV1@F@Z 00474700 f i ahistogram.obj
 0001:00073840       ?normalize@?$CVHistogram@V?$CvArray@F@@@@QAEXF@Z 00474840 f i ahistogram.obj
 0001:00073980       ?threshold@?$CVHistogram@V?$CvArray@F@@@@QAEXFAAV1@@Z 00474980 f i ahistogram.obj
 0001:00073a50       ?threshold@?$CVHistogram@V?$CvArray@F@@@@QAEXF@Z 00474a50 f i ahistogram.obj
 0001:00073b10       ??Z?$CVHistogram@V?$CvArray@F@@@@QAEAAV0@F@Z 00474b10 f i ahistogram.obj
 0001:00073bd0       ??X?$CVHistogram@V?$CvArray@F@@@@QAEAAV0@F@Z 00474bd0 f i ahistogram.obj
 0001:00073c70       ?mean@?$CVHistogram@V?$CvArray@F@@@@QBENXZ 00474c70 f i ahistogram.obj
 0001:00073d30       ??4?$CVHistogram@V?$CvArray@F@@@@QAEAAV0@ABV0@@Z 00474d30 f i ahistogram.obj
 0001:00073e20       ?operate_with@?$CVHistogram@V?$CvArray@F@@@@QBENABV1@Voperation@@@Z 00474e20 f i ahistogram.obj
 0001:00073e60       ?normalize@?$CVHistogram@V?$CvTree@HH@@@@QBEXAAV1@H@Z 00474e60 f i ahistogram.obj
 0001:00073f90       ?normalize@?$CVHistogram@V?$CvTree@HH@@@@QAEXH@Z 00474f90 f i ahistogram.obj
 0001:000740c0       ?threshold@?$CVHistogram@V?$CvTree@HH@@@@QAEXHAAV1@@Z 004750c0 f i ahistogram.obj
 0001:00074180       ?threshold@?$CVHistogram@V?$CvTree@HH@@@@QAEXH@Z 00475180 f i ahistogram.obj
 0001:00074230       ??Z?$CVHistogram@V?$CvTree@HH@@@@QAEAAV0@H@Z 00475230 f i ahistogram.obj
 0001:000742f0       ??X?$CVHistogram@V?$CvTree@HH@@@@QAEAAV0@H@Z 004752f0 f i ahistogram.obj
 0001:00074390       ?mean@?$CVHistogram@V?$CvTree@HH@@@@QBENXZ 00475390 f i ahistogram.obj
 0001:00074450       ??4?$CVHistogram@V?$CvTree@HH@@@@QAEAAV0@ABV0@@Z 00475450 f i ahistogram.obj
 0001:00074540       ?operate_with@?$CVHistogram@V?$CvTree@HH@@@@QBENABV1@Voperation@@@Z 00475540 f i ahistogram.obj
 0001:00074580       ?normalize@?$CVHistogram@V?$CvTree@MH@@@@QBEXAAV1@M@Z 00475580 f i ahistogram.obj
 0001:000746b0       ?normalize@?$CVHistogram@V?$CvTree@MH@@@@QAEXM@Z 004756b0 f i ahistogram.obj
 0001:000747e0       ?threshold@?$CVHistogram@V?$CvTree@MH@@@@QAEXMAAV1@@Z 004757e0 f i ahistogram.obj
 0001:000748b0       ?threshold@?$CVHistogram@V?$CvTree@MH@@@@QAEXM@Z 004758b0 f i ahistogram.obj
 0001:00074970       ??Z?$CVHistogram@V?$CvTree@MH@@@@QAEAAV0@M@Z 00475970 f i ahistogram.obj
 0001:00074a30       ??X?$CVHistogram@V?$CvTree@MH@@@@QAEAAV0@M@Z 00475a30 f i ahistogram.obj
 0001:00074ad0       ?mean@?$CVHistogram@V?$CvTree@MH@@@@QBENXZ 00475ad0 f i ahistogram.obj
 0001:00074b90       ??4?$CVHistogram@V?$CvTree@MH@@@@QAEAAV0@ABV0@@Z 00475b90 f i ahistogram.obj
 0001:00074c80       ?operate_with@?$CVHistogram@V?$CvTree@MH@@@@QBENABV1@Voperation@@@Z 00475c80 f i ahistogram.obj
 0001:00074cc0       ?normalize@?$CVHistogram@V?$CvTree@FH@@@@QBEXAAV1@F@Z 00475cc0 f i ahistogram.obj
 0001:00074e00       ?normalize@?$CVHistogram@V?$CvTree@FH@@@@QAEXF@Z 00475e00 f i ahistogram.obj
 0001:00074f50       ?threshold@?$CVHistogram@V?$CvTree@FH@@@@QAEXFAAV1@@Z 00475f50 f i ahistogram.obj
 0001:00075020       ?threshold@?$CVHistogram@V?$CvTree@FH@@@@QAEXF@Z 00476020 f i ahistogram.obj
 0001:000750e0       ??Z?$CVHistogram@V?$CvTree@FH@@@@QAEAAV0@F@Z 004760e0 f i ahistogram.obj
 0001:000751a0       ??X?$CVHistogram@V?$CvTree@FH@@@@QAEAAV0@F@Z 004761a0 f i ahistogram.obj
 0001:00075240       ?mean@?$CVHistogram@V?$CvTree@FH@@@@QBENXZ 00476240 f i ahistogram.obj
 0001:00075300       ??4?$CVHistogram@V?$CvTree@FH@@@@QAEAAV0@ABV0@@Z 00476300 f i ahistogram.obj
 0001:000753f0       ?operate_with@?$CVHistogram@V?$CvTree@FH@@@@QBENABV1@Voperation@@@Z 004763f0 f i ahistogram.obj
 0001:00075430       ?begin@?$CVHistogram@V?$CvArray@H@@@@QBE?AV?$CvArrayIterator@H@@XZ 00476430 f i ahistogram.obj
 0001:00075480       ?end@?$CVHistogram@V?$CvArray@H@@@@QBE?AV?$CvArrayIterator@H@@XZ 00476480 f i ahistogram.obj
 0001:000754d0       ?raw_begin@?$CVHistogram@V?$CvArray@H@@@@QBE?AV?$CvArrayIterator@H@@XZ 004764d0 f i ahistogram.obj
 0001:00075520       ?raw_end@?$CVHistogram@V?$CvArray@H@@@@QBE?AV?$CvArrayIterator@H@@XZ 00476520 f i ahistogram.obj
 0001:00075570       ?begin@?$CVHistogram@V?$CvArray@M@@@@QBE?AV?$CvArrayIterator@M@@XZ 00476570 f i ahistogram.obj
 0001:000755c0       ?end@?$CVHistogram@V?$CvArray@M@@@@QBE?AV?$CvArrayIterator@M@@XZ 004765c0 f i ahistogram.obj
 0001:00075610       ?raw_begin@?$CVHistogram@V?$CvArray@M@@@@QBE?AV?$CvArrayIterator@M@@XZ 00476610 f i ahistogram.obj
 0001:00075660       ?raw_end@?$CVHistogram@V?$CvArray@M@@@@QBE?AV?$CvArrayIterator@M@@XZ 00476660 f i ahistogram.obj
 0001:000756b0       ?begin@?$CVHistogram@V?$CvArray@F@@@@QBE?AV?$CvArrayIterator@F@@XZ 004766b0 f i ahistogram.obj
 0001:00075700       ?end@?$CVHistogram@V?$CvArray@F@@@@QBE?AV?$CvArrayIterator@F@@XZ 00476700 f i ahistogram.obj
 0001:00075750       ?raw_begin@?$CVHistogram@V?$CvArray@F@@@@QBE?AV?$CvArrayIterator@F@@XZ 00476750 f i ahistogram.obj
 0001:000757a0       ?raw_end@?$CVHistogram@V?$CvArray@F@@@@QBE?AV?$CvArrayIterator@F@@XZ 004767a0 f i ahistogram.obj
 0001:000757f0       ?begin@?$CVHistogram@V?$CvTree@HH@@@@QBE?AV?$CvTreeIterator@U?$_CvTreeNode@HH@@@@XZ 004767f0 f i ahistogram.obj
 0001:00075840       ?end@?$CVHistogram@V?$CvTree@HH@@@@QBE?AV?$CvTreeIterator@U?$_CvTreeNode@HH@@@@XZ 00476840 f i ahistogram.obj
 0001:00075890       ?raw_begin@?$CVHistogram@V?$CvTree@HH@@@@QBE?AV?$CvNodeIterator@U?$_CvTreeNode@HH@@@@XZ 00476890 f i ahistogram.obj
 0001:000758e0       ?raw_end@?$CVHistogram@V?$CvTree@HH@@@@QBE?AV?$CvNodeIterator@U?$_CvTreeNode@HH@@@@XZ 004768e0 f i ahistogram.obj
 0001:00075930       ?begin@?$CVHistogram@V?$CvTree@MH@@@@QBE?AV?$CvTreeIterator@U?$_CvTreeNode@MH@@@@XZ 00476930 f i ahistogram.obj
 0001:00075980       ?end@?$CVHistogram@V?$CvTree@MH@@@@QBE?AV?$CvTreeIterator@U?$_CvTreeNode@MH@@@@XZ 00476980 f i ahistogram.obj
 0001:000759d0       ?raw_begin@?$CVHistogram@V?$CvTree@MH@@@@QBE?AV?$CvNodeIterator@U?$_CvTreeNode@MH@@@@XZ 004769d0 f i ahistogram.obj
 0001:00075a20       ?raw_end@?$CVHistogram@V?$CvTree@MH@@@@QBE?AV?$CvNodeIterator@U?$_CvTreeNode@MH@@@@XZ 00476a20 f i ahistogram.obj
 0001:00075a70       ?begin@?$CVHistogram@V?$CvTree@FH@@@@QBE?AV?$CvTreeIterator@U?$_CvTreeNode@FH@@@@XZ 00476a70 f i ahistogram.obj
 0001:00075ac0       ?end@?$CVHistogram@V?$CvTree@FH@@@@QBE?AV?$CvTreeIterator@U?$_CvTreeNode@FH@@@@XZ 00476ac0 f i ahistogram.obj
 0001:00075b10       ?raw_begin@?$CVHistogram@V?$CvTree@FH@@@@QBE?AV?$CvNodeIterator@U?$_CvTreeNode@FH@@@@XZ 00476b10 f i ahistogram.obj
 0001:00075b60       ?raw_end@?$CVHistogram@V?$CvTree@FH@@@@QBE?AV?$CvNodeIterator@U?$_CvTreeNode@FH@@@@XZ 00476b60 f i ahistogram.obj
 0001:00075bb0       ??D?$CvArrayIterator@H@@QBEAAHXZ 00476bb0 f i ahistogram.obj
 0001:00075bd0       ?get_idx@?$CvArrayIterator@H@@QBEHXZ 00476bd0 f i ahistogram.obj
 0001:00075bf0       ??E?$CvArrayIterator@H@@QAE?BV0@H@Z 00476bf0 f i ahistogram.obj
 0001:00075c50       ??0?$CvArrayIterator@H@@QAE@ABV0@@Z 00476c50 f i ahistogram.obj
 0001:00075c80       ??9?$CvArrayIterator@H@@QBE_NABV0@@Z 00476c80 f i ahistogram.obj
 0001:00075cd0       ??D?$CvArrayIterator@M@@QBEAAMXZ 00476cd0 f i ahistogram.obj
 0001:00075cf0       ?get_idx@?$CvArrayIterator@M@@QBEHXZ 00476cf0 f i ahistogram.obj
 0001:00075d10       ??E?$CvArrayIterator@M@@QAE?BV0@H@Z 00476d10 f i ahistogram.obj
 0001:00075d70       ??0?$CvArrayIterator@M@@QAE@ABV0@@Z 00476d70 f i ahistogram.obj
 0001:00075da0       ??9?$CvArrayIterator@M@@QBE_NABV0@@Z 00476da0 f i ahistogram.obj
 0001:00075df0       ??D?$CvNodeIterator@U?$_CvTreeNode@HH@@@@QBEAAHXZ 00476df0 f i ahistogram.obj
 0001:00075e20       ?get_idx@?$CvNodeIterator@U?$_CvTreeNode@HH@@@@QBEHXZ 00476e20 f i ahistogram.obj
 0001:00075e50       ??D?$CvTreeIterator@U?$_CvTreeNode@HH@@@@QAEAAHXZ 00476e50 f i ahistogram.obj
 0001:00075ea0       ?get_idx@?$CvTreeIterator@U?$_CvTreeNode@HH@@@@QAEHXZ 00476ea0 f i ahistogram.obj
 0001:00075ef0       ??4?$CvTreeIterator@U?$_CvTreeNode@HH@@@@QAEAAV0@ABV0@@Z 00476ef0 f i ahistogram.obj
 0001:00075f20       ??0?$CvTreeIterator@U?$_CvTreeNode@HH@@@@QAE@ABV0@@Z 00476f20 f i ahistogram.obj
 0001:00075f50       ??9?$CvTreeIterator@U?$_CvTreeNode@HH@@@@QAE_NABV0@@Z 00476f50 f i ahistogram.obj
 0001:00075f80       ??D?$CvNodeIterator@U?$_CvTreeNode@MH@@@@QBEAAMXZ 00476f80 f i ahistogram.obj
 0001:00075fb0       ?get_idx@?$CvNodeIterator@U?$_CvTreeNode@MH@@@@QBEHXZ 00476fb0 f i ahistogram.obj
 0001:00075fe0       ??D?$CvTreeIterator@U?$_CvTreeNode@MH@@@@QAEAAMXZ 00476fe0 f i ahistogram.obj
 0001:00076030       ?get_idx@?$CvTreeIterator@U?$_CvTreeNode@MH@@@@QAEHXZ 00477030 f i ahistogram.obj
 0001:00076080       ??4?$CvTreeIterator@U?$_CvTreeNode@MH@@@@QAEAAV0@ABV0@@Z 00477080 f i ahistogram.obj
 0001:000760b0       ??0?$CvTreeIterator@U?$_CvTreeNode@MH@@@@QAE@ABV0@@Z 004770b0 f i ahistogram.obj
 0001:000760e0       ??9?$CvTreeIterator@U?$_CvTreeNode@MH@@@@QAE_NABV0@@Z 004770e0 f i ahistogram.obj
 0001:00076110       ??D?$CvNodeIterator@U?$_CvTreeNode@FH@@@@QBEAAFXZ 00477110 f i ahistogram.obj
 0001:00076140       ?get_idx@?$CvNodeIterator@U?$_CvTreeNode@FH@@@@QBEHXZ 00477140 f i ahistogram.obj
 0001:00076170       ??D?$CvTreeIterator@U?$_CvTreeNode@FH@@@@QAEAAFXZ 00477170 f i ahistogram.obj
 0001:000761c0       ?get_idx@?$CvTreeIterator@U?$_CvTreeNode@FH@@@@QAEHXZ 004771c0 f i ahistogram.obj
 0001:00076210       ??4?$CvTreeIterator@U?$_CvTreeNode@FH@@@@QAEAAV0@ABV0@@Z 00477210 f i ahistogram.obj
 0001:00076240       ??0?$CvTreeIterator@U?$_CvTreeNode@FH@@@@QAE@ABV0@@Z 00477240 f i ahistogram.obj
 0001:00076270       ??9?$CvTreeIterator@U?$_CvTreeNode@FH@@@@QAE_NABV0@@Z 00477270 f i ahistogram.obj
 0001:000762a0       ?raw_begin@?$CvTree@HH@@QBE?AV?$CvNodeIterator@U?$_CvTreeNode@HH@@@@XZ 004772a0 f i ahistogram.obj
 0001:000762f0       ?raw_end@?$CvTree@HH@@QBE?AV?$CvNodeIterator@U?$_CvTreeNode@HH@@@@XZ 004772f0 f i ahistogram.obj
 0001:00076340       ?raw_begin@?$CvTree@MH@@QBE?AV?$CvNodeIterator@U?$_CvTreeNode@MH@@@@XZ 00477340 f i ahistogram.obj
 0001:00076390       ?raw_end@?$CvTree@MH@@QBE?AV?$CvNodeIterator@U?$_CvTreeNode@MH@@@@XZ 00477390 f i ahistogram.obj
 0001:000763e0       ?raw_begin@?$CvTree@FH@@QBE?AV?$CvNodeIterator@U?$_CvTreeNode@FH@@@@XZ 004773e0 f i ahistogram.obj
 0001:00076430       ?raw_end@?$CvTree@FH@@QBE?AV?$CvNodeIterator@U?$_CvTreeNode@FH@@@@XZ 00477430 f i ahistogram.obj
 0001:00076480       ?begin@?$_CvNodeManager@U?$_CvTreeNode@HH@@@@QBE?AV?$CvNodeIterator@U?$_CvTreeNode@HH@@@@XZ 00477480 f i ahistogram.obj
 0001:000764d0       ?end@?$_CvNodeManager@U?$_CvTreeNode@HH@@@@QBE?AV?$CvNodeIterator@U?$_CvTreeNode@HH@@@@XZ 004774d0 f i ahistogram.obj
 0001:00076530       ?begin@?$_CvNodeManager@U?$_CvTreeNode@MH@@@@QBE?AV?$CvNodeIterator@U?$_CvTreeNode@MH@@@@XZ 00477530 f i ahistogram.obj
 0001:00076580       ?end@?$_CvNodeManager@U?$_CvTreeNode@MH@@@@QBE?AV?$CvNodeIterator@U?$_CvTreeNode@MH@@@@XZ 00477580 f i ahistogram.obj
 0001:000765e0       ?begin@?$_CvNodeManager@U?$_CvTreeNode@FH@@@@QBE?AV?$CvNodeIterator@U?$_CvTreeNode@FH@@@@XZ 004775e0 f i ahistogram.obj
 0001:00076630       ?end@?$_CvNodeManager@U?$_CvTreeNode@FH@@@@QBE?AV?$CvNodeIterator@U?$_CvTreeNode@FH@@@@XZ 00477630 f i ahistogram.obj
 0001:00076690       ?begin@?$CvArray@H@@QBE?AV?$CvArrayIterator@H@@XZ 00477690 f i ahistogram.obj
 0001:00076700       ?end@?$CvArray@H@@QBE?AV?$CvArrayIterator@H@@XZ 00477700 f i ahistogram.obj
 0001:00076780       ?raw_begin@?$CvArray@H@@QBE?AV?$CvArrayIterator@H@@XZ 00477780 f i ahistogram.obj
 0001:000767f0       ?raw_end@?$CvArray@H@@QBE?AV?$CvArrayIterator@H@@XZ 004777f0 f i ahistogram.obj
 0001:00076870       ?operate_with@?$CvArray@H@@QBENABV1@Voperation@@@Z 00477870 f i ahistogram.obj
 0001:00076900       ?begin@?$CvArray@M@@QBE?AV?$CvArrayIterator@M@@XZ 00477900 f i ahistogram.obj
 0001:00076970       ?end@?$CvArray@M@@QBE?AV?$CvArrayIterator@M@@XZ 00477970 f i ahistogram.obj
 0001:000769f0       ?raw_begin@?$CvArray@M@@QBE?AV?$CvArrayIterator@M@@XZ 004779f0 f i ahistogram.obj
 0001:00076a60       ?raw_end@?$CvArray@M@@QBE?AV?$CvArrayIterator@M@@XZ 00477a60 f i ahistogram.obj
 0001:00076ae0       ?operate_with@?$CvArray@M@@QBENABV1@Voperation@@@Z 00477ae0 f i ahistogram.obj
 0001:00076b70       ?begin@?$CvArray@F@@QBE?AV?$CvArrayIterator@F@@XZ 00477b70 f i ahistogram.obj
 0001:00076be0       ?end@?$CvArray@F@@QBE?AV?$CvArrayIterator@F@@XZ 00477be0 f i ahistogram.obj
 0001:00076c60       ?raw_begin@?$CvArray@F@@QBE?AV?$CvArrayIterator@F@@XZ 00477c60 f i ahistogram.obj
 0001:00076cd0       ?raw_end@?$CvArray@F@@QBE?AV?$CvArrayIterator@F@@XZ 00477cd0 f i ahistogram.obj
 0001:00076d50       ?operate_with@?$CvArray@F@@QBENABV1@Voperation@@@Z 00477d50 f i ahistogram.obj
 0001:00076de0       ?begin@?$CvTree@HH@@QBE?AV?$CvTreeIterator@U?$_CvTreeNode@HH@@@@XZ 00477de0 f i ahistogram.obj
 0001:00076e60       ?end@?$CvTree@HH@@QBE?AV?$CvTreeIterator@U?$_CvTreeNode@HH@@@@XZ 00477e60 f i ahistogram.obj
 0001:00076ee0       ??E?$CvTreeIterator@U?$_CvTreeNode@HH@@@@QAE?AV0@H@Z 00477ee0 f i ahistogram.obj
 0001:00076f30       ?operate_with@?$CvTree@HH@@QBENABV1@Voperation@@@Z 00477f30 f i ahistogram.obj
 0001:00077120       ?begin@?$CvTree@MH@@QBE?AV?$CvTreeIterator@U?$_CvTreeNode@MH@@@@XZ 00478120 f i ahistogram.obj
 0001:000771a0       ?end@?$CvTree@MH@@QBE?AV?$CvTreeIterator@U?$_CvTreeNode@MH@@@@XZ 004781a0 f i ahistogram.obj
 0001:00077220       ??E?$CvTreeIterator@U?$_CvTreeNode@MH@@@@QAE?AV0@H@Z 00478220 f i ahistogram.obj
 0001:00077270       ?operate_with@?$CvTree@MH@@QBENABV1@Voperation@@@Z 00478270 f i ahistogram.obj
 0001:00077460       ?begin@?$CvTree@FH@@QBE?AV?$CvTreeIterator@U?$_CvTreeNode@FH@@@@XZ 00478460 f i ahistogram.obj
 0001:000774e0       ?end@?$CvTree@FH@@QBE?AV?$CvTreeIterator@U?$_CvTreeNode@FH@@@@XZ 004784e0 f i ahistogram.obj
 0001:00077560       ??E?$CvTreeIterator@U?$_CvTreeNode@FH@@@@QAE?AV0@H@Z 00478560 f i ahistogram.obj
 0001:000775b0       ?operate_with@?$CvTree@FH@@QBENABV1@Voperation@@@Z 004785b0 f i ahistogram.obj
 0001:000777b0       ??0?$CvArrayIterator@H@@QAE@XZ 004787b0 f i ahistogram.obj
 0001:000777e0       ??0?$CvArrayIterator@H@@QAE@PAH0@Z 004787e0 f i ahistogram.obj
 0001:00077810       ??0?$CvArrayIterator@M@@QAE@XZ 00478810 f i ahistogram.obj
 0001:00077840       ??0?$CvArrayIterator@M@@QAE@PAM0@Z 00478840 f i ahistogram.obj
 0001:00077870       ??0?$CvTreeIterator@U?$_CvTreeNode@HH@@@@QAE@PAU?$_CvTreeNode@HH@@@Z 00478870 f i ahistogram.obj
 0001:00077890       ??0?$CvTreeIterator@U?$_CvTreeNode@MH@@@@QAE@PAU?$_CvTreeNode@MH@@@Z 00478890 f i ahistogram.obj
 0001:000778b0       ??0?$CvTreeIterator@U?$_CvTreeNode@FH@@@@QAE@PAU?$_CvTreeNode@FH@@@Z 004788b0 f i ahistogram.obj
 0001:000778d0       ??Roperation@@QAENNHH@Z    004788d0 f i ahistogram.obj
 0001:00077910       ??Roperation@@QAENNMM@Z    00478910 f i ahistogram.obj
 0001:00077940       ??Roperation@@QAENNFF@Z    00478940 f i ahistogram.obj
 0001:00077990       ?next@?$CvTreeIterator@U?$_CvTreeNode@HH@@@@IAEPAU?$_CvTreeNode@HH@@XZ 00478990 f i ahistogram.obj
 0001:00077a40       ?next@?$CvTreeIterator@U?$_CvTreeNode@MH@@@@IAEPAU?$_CvTreeNode@MH@@XZ 00478a40 f i ahistogram.obj
 0001:00077af0       ?next@?$CvTreeIterator@U?$_CvTreeNode@FH@@@@IAEPAU?$_CvTreeNode@FH@@XZ 00478af0 f i ahistogram.obj
 0001:00077ba0       ?InitANodeIterator@@YAXXZ  00478ba0 f   anodeiterator.obj
 0001:00077cb0       ?foaCvNodeIterator@@YAHXZ  00478cb0 f i anodeiterator.obj
 0001:00077f00       ??8?$CvNodeIterator@U?$_CvTreeNode@FH@@@@QBE_NABV0@@Z 00478f00 f i anodeiterator.obj
 0001:00077f50       ??E?$CvNodeIterator@U?$_CvTreeNode@FH@@@@QAEAAV0@XZ 00478f50 f i anodeiterator.obj
 0001:00077fb0       ?InitAHistogramOperations@@YAXXZ 00478fb0 f   aoperations.obj
 0001:00078370       ??0?$CvArray@N@@QAE@XZ     00479370 f i aoperations.obj
 0001:000783b0       ??1?$CvArray@N@@QAE@XZ     004793b0 f i aoperations.obj
 0001:00078400       ?foaOperations@@YAHV?$CvArray@H@@0@Z 00479400 f i aoperations.obj
 0001:00078700       ?foaOperations@@YAHV?$CvArray@N@@0@Z 00479700 f i aoperations.obj
 0001:00078a70       ?foaOperations@@YAHV?$CvArray@F@@0@Z 00479a70 f i aoperations.obj
 0001:00078d70       ?foaOperations@@YAHV?$CvTree@HH@@0@Z 00479d70 f i aoperations.obj
 0001:00079070       ?foaOperations@@YAHV?$CvTree@MH@@0@Z 0047a070 f i aoperations.obj
 0001:000793b0       ?foaOperations@@YAHV?$CvTree@FH@@0@Z 0047a3b0 f i aoperations.obj
 0001:000796b0       ??A?$CVHistogram@V?$CvArray@N@@@@QAEAANH@Z 0047a6b0 f i aoperations.obj
 0001:000796e0       ??0?$CVHistogram@V?$CvArray@N@@@@QAE@HHHHHH@Z 0047a6e0 f i aoperations.obj
 0001:00079760       ??1?$CVHistogram@V?$CvArray@N@@@@QAE@XZ 0047a760 f i aoperations.obj
 0001:000797c0       ??A?$CvArray@N@@QAEAANH@Z  0047a7c0 f i aoperations.obj
 0001:00079820       ?destroy@?$CVHistogram@V?$CvArray@N@@@@QAEXXZ 0047a820 f i aoperations.obj
 0001:00079850       ?calc_histogram_intersection@@YANABV?$CVHistogram@V?$CvArray@H@@@@0@Z 0047a850 f i aoperations.obj
 0001:00079880       ?calc_histogram_chi_square@@YANABV?$CVHistogram@V?$CvArray@H@@@@0@Z 0047a880 f i aoperations.obj
 0001:000798b0       ?calc_histogram_correlation@@YANABV?$CVHistogram@V?$CvArray@H@@@@0@Z 0047a8b0 f i aoperations.obj
 0001:00079920       ??0Correl@@QAE@NN@Z        0047a920 f i aoperations.obj
 0001:00079960       ?destroy@?$CvArray@N@@QAEXXZ 0047a960 f i aoperations.obj
 0001:000799c0       ?create@?$CVHistogram@V?$CvArray@N@@@@QAEXHHHHHH@Z 0047a9c0 f i aoperations.obj
 0001:00079b70       ?calc_histogram_intersection@@YANABV?$CVHistogram@V?$CvArray@N@@@@0@Z 0047ab70 f i aoperations.obj
 0001:00079ba0       ?calc_histogram_chi_square@@YANABV?$CVHistogram@V?$CvArray@N@@@@0@Z 0047aba0 f i aoperations.obj
 0001:00079bd0       ?calc_histogram_correlation@@YANABV?$CVHistogram@V?$CvArray@N@@@@0@Z 0047abd0 f i aoperations.obj
 0001:00079c40       ?calc_histogram_intersection@@YANABV?$CVHistogram@V?$CvArray@F@@@@0@Z 0047ac40 f i aoperations.obj
 0001:00079c70       ?calc_histogram_chi_square@@YANABV?$CVHistogram@V?$CvArray@F@@@@0@Z 0047ac70 f i aoperations.obj
 0001:00079ca0       ?calc_histogram_correlation@@YANABV?$CVHistogram@V?$CvArray@F@@@@0@Z 0047aca0 f i aoperations.obj
 0001:00079d10       ?calc_histogram_intersection@@YANABV?$CVHistogram@V?$CvTree@HH@@@@0@Z 0047ad10 f i aoperations.obj
 0001:00079d40       ?calc_histogram_chi_square@@YANABV?$CVHistogram@V?$CvTree@HH@@@@0@Z 0047ad40 f i aoperations.obj
 0001:00079d70       ?calc_histogram_correlation@@YANABV?$CVHistogram@V?$CvTree@HH@@@@0@Z 0047ad70 f i aoperations.obj
 0001:00079de0       ?calc_histogram_intersection@@YANABV?$CVHistogram@V?$CvTree@MH@@@@0@Z 0047ade0 f i aoperations.obj
 0001:00079e10       ?calc_histogram_chi_square@@YANABV?$CVHistogram@V?$CvTree@MH@@@@0@Z 0047ae10 f i aoperations.obj
 0001:00079e40       ?calc_histogram_correlation@@YANABV?$CVHistogram@V?$CvTree@MH@@@@0@Z 0047ae40 f i aoperations.obj
 0001:00079eb0       ?calc_histogram_intersection@@YANABV?$CVHistogram@V?$CvTree@FH@@@@0@Z 0047aeb0 f i aoperations.obj
 0001:00079ee0       ?calc_histogram_chi_square@@YANABV?$CVHistogram@V?$CvTree@FH@@@@0@Z 0047aee0 f i aoperations.obj
 0001:00079f10       ?calc_histogram_correlation@@YANABV?$CVHistogram@V?$CvTree@FH@@@@0@Z 0047af10 f i aoperations.obj
 0001:00079f80       ?operate_with@?$CVHistogram@V?$CvArray@H@@@@QBENABV1@VIntersection@@@Z 0047af80 f i aoperations.obj
 0001:00079fc0       ?operate_with@?$CVHistogram@V?$CvArray@H@@@@QBENABV1@VChiSqr@@@Z 0047afc0 f i aoperations.obj
 0001:0007a000       ?operate_with@?$CVHistogram@V?$CvArray@H@@@@QBENABV1@VCorrel@@@Z 0047b000 f i aoperations.obj
 0001:0007a050       ?clear@?$CvArray@N@@QAEXXZ 0047b050 f i aoperations.obj
 0001:0007a0b0       ?set_size@?$CvArray@N@@QAEXH@Z 0047b0b0 f i aoperations.obj
 0001:0007a1f0       ?mean@?$CVHistogram@V?$CvArray@N@@@@QBENXZ 0047b1f0 f i aoperations.obj
 0001:0007a2a0       ?operate_with@?$CVHistogram@V?$CvArray@N@@@@QBENABV1@VIntersection@@@Z 0047b2a0 f i aoperations.obj
 0001:0007a2e0       ?operate_with@?$CVHistogram@V?$CvArray@N@@@@QBENABV1@VChiSqr@@@Z 0047b2e0 f i aoperations.obj
 0001:0007a320       ?operate_with@?$CVHistogram@V?$CvArray@N@@@@QBENABV1@VCorrel@@@Z 0047b320 f i aoperations.obj
 0001:0007a370       ?operate_with@?$CVHistogram@V?$CvArray@F@@@@QBENABV1@VIntersection@@@Z 0047b370 f i aoperations.obj
 0001:0007a3b0       ?operate_with@?$CVHistogram@V?$CvArray@F@@@@QBENABV1@VChiSqr@@@Z 0047b3b0 f i aoperations.obj
 0001:0007a3f0       ?operate_with@?$CVHistogram@V?$CvArray@F@@@@QBENABV1@VCorrel@@@Z 0047b3f0 f i aoperations.obj
 0001:0007a440       ?operate_with@?$CVHistogram@V?$CvTree@HH@@@@QBENABV1@VIntersection@@@Z 0047b440 f i aoperations.obj
 0001:0007a480       ?operate_with@?$CVHistogram@V?$CvTree@HH@@@@QBENABV1@VChiSqr@@@Z 0047b480 f i aoperations.obj
 0001:0007a4c0       ?operate_with@?$CVHistogram@V?$CvTree@HH@@@@QBENABV1@VCorrel@@@Z 0047b4c0 f i aoperations.obj
 0001:0007a510       ?operate_with@?$CVHistogram@V?$CvTree@MH@@@@QBENABV1@VIntersection@@@Z 0047b510 f i aoperations.obj
 0001:0007a550       ?operate_with@?$CVHistogram@V?$CvTree@MH@@@@QBENABV1@VChiSqr@@@Z 0047b550 f i aoperations.obj
 0001:0007a590       ?operate_with@?$CVHistogram@V?$CvTree@MH@@@@QBENABV1@VCorrel@@@Z 0047b590 f i aoperations.obj
 0001:0007a5e0       ?operate_with@?$CVHistogram@V?$CvTree@FH@@@@QBENABV1@VIntersection@@@Z 0047b5e0 f i aoperations.obj
 0001:0007a620       ?operate_with@?$CVHistogram@V?$CvTree@FH@@@@QBENABV1@VChiSqr@@@Z 0047b620 f i aoperations.obj
 0001:0007a660       ?operate_with@?$CVHistogram@V?$CvTree@FH@@@@QBENABV1@VCorrel@@@Z 0047b660 f i aoperations.obj
 0001:0007a6b0       ?begin@?$CVHistogram@V?$CvArray@N@@@@QBE?AV?$CvArrayIterator@N@@XZ 0047b6b0 f i aoperations.obj
 0001:0007a700       ?end@?$CVHistogram@V?$CvArray@N@@@@QBE?AV?$CvArrayIterator@N@@XZ 0047b700 f i aoperations.obj
 0001:0007a750       ??D?$CvArrayIterator@N@@QBEAANXZ 0047b750 f i aoperations.obj
 0001:0007a770       ??E?$CvArrayIterator@N@@QAE?BV0@H@Z 0047b770 f i aoperations.obj
 0001:0007a7d0       ??0?$CvArrayIterator@N@@QAE@ABV0@@Z 0047b7d0 f i aoperations.obj
 0001:0007a800       ??9?$CvArrayIterator@N@@QBE_NABV0@@Z 0047b800 f i aoperations.obj
 0001:0007a850       ?operate_with@?$CvArray@H@@QBENABV1@VIntersection@@@Z 0047b850 f i aoperations.obj
 0001:0007a8e0       ?operate_with@?$CvArray@H@@QBENABV1@VChiSqr@@@Z 0047b8e0 f i aoperations.obj
 0001:0007a970       ?operate_with@?$CvArray@H@@QBENABV1@VCorrel@@@Z 0047b970 f i aoperations.obj
 0001:0007aa10       ??0_Correl@@QAE@N@Z        0047ba10 f i aoperations.obj
 0001:0007aa60       ??B_Correl@@QAENXZ         0047ba60 f i aoperations.obj
 0001:0007aaa0       ?begin@?$CvArray@N@@QBE?AV?$CvArrayIterator@N@@XZ 0047baa0 f i aoperations.obj
 0001:0007ab10       ?end@?$CvArray@N@@QBE?AV?$CvArrayIterator@N@@XZ 0047bb10 f i aoperations.obj
 0001:0007ab90       ?operate_with@?$CvArray@N@@QBENABV1@VIntersection@@@Z 0047bb90 f i aoperations.obj
 0001:0007ac20       ?operate_with@?$CvArray@N@@QBENABV1@VChiSqr@@@Z 0047bc20 f i aoperations.obj
 0001:0007acb0       ?operate_with@?$CvArray@N@@QBENABV1@VCorrel@@@Z 0047bcb0 f i aoperations.obj
 0001:0007ad60       ?operate_with@?$CvArray@F@@QBENABV1@VIntersection@@@Z 0047bd60 f i aoperations.obj
 0001:0007adf0       ?operate_with@?$CvArray@F@@QBENABV1@VChiSqr@@@Z 0047bdf0 f i aoperations.obj
 0001:0007ae80       ?operate_with@?$CvArray@F@@QBENABV1@VCorrel@@@Z 0047be80 f i aoperations.obj
 0001:0007af30       ?operate_with@?$CvTree@HH@@QBENABV1@VIntersection@@@Z 0047bf30 f i aoperations.obj
 0001:0007b120       ?operate_with@?$CvTree@HH@@QBENABV1@VChiSqr@@@Z 0047c120 f i aoperations.obj
 0001:0007b310       ?operate_with@?$CvTree@HH@@QBENABV1@VCorrel@@@Z 0047c310 f i aoperations.obj
 0001:0007b570       ?operate_with@?$CvTree@MH@@QBENABV1@VIntersection@@@Z 0047c570 f i aoperations.obj
 0001:0007b760       ?operate_with@?$CvTree@MH@@QBENABV1@VChiSqr@@@Z 0047c760 f i aoperations.obj
 0001:0007b950       ?operate_with@?$CvTree@MH@@QBENABV1@VCorrel@@@Z 0047c950 f i aoperations.obj
 0001:0007bbb0       ?operate_with@?$CvTree@FH@@QBENABV1@VIntersection@@@Z 0047cbb0 f i aoperations.obj
 0001:0007bdb0       ?operate_with@?$CvTree@FH@@QBENABV1@VChiSqr@@@Z 0047cdb0 f i aoperations.obj
 0001:0007bfb0       ?operate_with@?$CvTree@FH@@QBENABV1@VCorrel@@@Z 0047cfb0 f i aoperations.obj
 0001:0007c210       ??0?$CvArrayIterator@N@@QAE@XZ 0047d210 f i aoperations.obj
 0001:0007c240       ??0?$CvArrayIterator@N@@QAE@PAN0@Z 0047d240 f i aoperations.obj
 0001:0007c270       ??RIntersection@@QAENNHH@Z 0047d270 f i aoperations.obj
 0001:0007c2b0       ??RChiSqr@@QAENNHH@Z       0047d2b0 f i aoperations.obj
 0001:0007c300       ??RCorrel@@QAE?AV_Correl@@V1@HH@Z 0047d300 f i aoperations.obj
 0001:0007c380       ??RIntersection@@QAENNNN@Z 0047d380 f i aoperations.obj
 0001:0007c3e0       ??RChiSqr@@QAENNNN@Z       0047d3e0 f i aoperations.obj
 0001:0007c410       ??RCorrel@@QAE?AV_Correl@@V1@NN@Z 0047d410 f i aoperations.obj
 0001:0007c490       ??RIntersection@@QAENNFF@Z 0047d490 f i aoperations.obj
 0001:0007c4e0       ??RChiSqr@@QAENNFF@Z       0047d4e0 f i aoperations.obj
 0001:0007c540       ??RCorrel@@QAE?AV_Correl@@V1@FF@Z 0047d540 f i aoperations.obj
 0001:0007c5d0       ??RIntersection@@QAENNMM@Z 0047d5d0 f i aoperations.obj
 0001:0007c610       ??RChiSqr@@QAENNMM@Z       0047d610 f i aoperations.obj
 0001:0007c640       ??RCorrel@@QAE?AV_Correl@@V1@MM@Z 0047d640 f i aoperations.obj
 0001:0007c6c0       ?InitAStorageArray@@YAXXZ  0047d6c0 f   astoragearray.obj
 0001:0007c7d0       ?foaCvArray@@YAHXZ         0047d7d0 f i astoragearray.obj
 0001:0007d390       ?get_size@?$CvArray@F@@QBEHXZ 0047e390 f i astoragearray.obj
 0001:0007d3b0       ?get_capacity@?$CvArray@F@@QAEHXZ 0047e3b0 f i astoragearray.obj
 0001:0007d3d0       ?get_array@?$CvArray@F@@QBEPAFXZ 0047e3d0 f i astoragearray.obj
 0001:0007d3f0       ?remove@?$CvArray@F@@QAEXH@Z 0047e3f0 f i astoragearray.obj
 0001:0007d430       ?set_capacity@?$CvArray@F@@QAEXH@Z 0047e430 f i astoragearray.obj
 0001:0007d4e0       ??0?$CvArray@F@@QAE@ABV0@@Z 0047e4e0 f i astoragearray.obj
 0001:0007d580       ??0?$CvArray@F@@QAE@HH@Z   0047e580 f i astoragearray.obj
 0001:0007d5f0       ??0?$CvArray@F@@QAE@H@Z    0047e5f0 f i astoragearray.obj
 0001:0007d670       ??4?$CvArray@F@@QAEAAV0@ABV0@@Z 0047e670 f i astoragearray.obj
 0001:0007d790       ?InitATree@@YAXXZ          0047e790 f   atree.obj
 0001:0007d8c0       ?foaCvTree@@YAHHH@Z        0047e8c0 f i atree.obj
 0001:0007df60       ?foaCvTree@@YAHMH@Z        0047ef60 f i atree.obj
 0001:0007e680       ?foaCvTree@@YAHFH@Z        0047f680 f i atree.obj
 0001:0007ed50       ?get_root@?$CvTree@HH@@QBEPAU?$_CvTreeNode@HH@@XZ 0047fd50 f i atree.obj
 0001:0007ed70       ?get_root@?$CvTree@MH@@QBEPAU?$_CvTreeNode@MH@@XZ 0047fd70 f i atree.obj
 0001:0007ed90       ?get_root@?$CvTree@FH@@QBEPAU?$_CvTreeNode@FH@@XZ 0047fd90 f i atree.obj
 0001:0007edb0       ?remove@?$CvTree@HH@@QAEXH@Z 0047fdb0 f i atree.obj
 0001:0007f500       ??4?$CvTree@HH@@QAEAAV0@ABV0@@Z 00480500 f i atree.obj
 0001:0007f5e0       ?check_direct@@YAHPAU?$_CvTreeNode@HH@@@Z 004805e0 f i atree.obj
 0001:0007f790       ?check_balance@@YAHPAU?$_CvTreeNode@HH@@@Z 00480790 f i atree.obj
 0001:0007f8d0       ?remove@?$CvTree@MH@@QAEXH@Z 004808d0 f i atree.obj
 0001:00080020       ??4?$CvTree@MH@@QAEAAV0@ABV0@@Z 00481020 f i atree.obj
 0001:00080100       ?check_direct@@YAHPAU?$_CvTreeNode@MH@@@Z 00481100 f i atree.obj
 0001:000802b0       ?check_balance@@YAHPAU?$_CvTreeNode@MH@@@Z 004812b0 f i atree.obj
 0001:000803f0       ?remove@?$CvTree@FH@@QAEXH@Z 004813f0 f i atree.obj
 0001:00080b40       ??4?$CvTree@FH@@QAEAAV0@ABV0@@Z 00481b40 f i atree.obj
 0001:00080c30       ?check_direct@@YAHPAU?$_CvTreeNode@FH@@@Z 00481c30 f i atree.obj
 0001:00080de0       ?check_balance@@YAHPAU?$_CvTreeNode@FH@@@Z 00481de0 f i atree.obj
 0001:00080f20       ?release_node@?$_CvNodeManager@U?$_CvTreeNode@HH@@@@QAEXPAU?$_CvTreeNode@HH@@@Z 00481f20 f i atree.obj
 0001:00080f90       ?release_node@?$_CvNodeManager@U?$_CvTreeNode@MH@@@@QAEXPAU?$_CvTreeNode@MH@@@Z 00481f90 f i atree.obj
 0001:00081000       ?release_node@?$_CvNodeManager@U?$_CvTreeNode@FH@@@@QAEXPAU?$_CvTreeNode@FH@@@Z 00482000 f i atree.obj
 0001:00081070       ?InitATreeIterator@@YAXXZ  00482070 f   atreeiterator.obj
 0001:00081180       ?foaCvTreeIterator@@YAHXZ  00482180 f i atreeiterator.obj
 0001:000813f0       ??0?$CvTreeIterator@U?$_CvTreeNode@FH@@@@QAE@XZ 004823f0 f i atreeiterator.obj
 0001:00081410       ??8?$CvTreeIterator@U?$_CvTreeNode@FH@@@@QAE_NABV0@@Z 00482410 f i atreeiterator.obj
 0001:00081440       ??E?$CvTreeIterator@U?$_CvTreeNode@FH@@@@QAE?AV0@XZ 00482440 f i atreeiterator.obj
 0001:00081480       _main                      00482480 f   tsysA.obj
 0001:00081660       _cvSeqPush                 00482660 f   cvd:CVd.dll
 0001:00081666       _cvCreateSeq               00482666 f   cvd:CVd.dll
 0001:0008166c       _cvChangeSeqBlock          0048266c f   cvd:CVd.dll
 0001:00081672       _cvStartReadSeq            00482672 f   cvd:CVd.dll
 0001:00081678       _cvRestoreMemStoragePos    00482678 f   cvd:CVd.dll
 0001:0008167e       _cvApproxPoly              0048267e f   cvd:CVd.dll
 0001:00081684       _cvSaveMemStoragePos       00482684 f   cvd:CVd.dll
 0001:0008168a       _cvCreateMemStorage        0048268a f   cvd:CVd.dll
 0001:00081690       _cvReleaseMemStorage       00482690 f   cvd:CVd.dll
 0001:00081696       _cvContourArea             00482696 f   cvd:CVd.dll
 0001:0008169c       _cvContourMoments          0048269c f   cvd:CVd.dll
 0001:000816a2       _cvMakeSeqHeaderForArray   004826a2 f   cvd:CVd.dll
 0001:000816a8       _cvReleaseImage            004826a8 f   cvd:CVd.dll
 0001:000816ae       _cvLine                    004826ae f   cvd:CVd.dll
 0001:000816b4       _cvFillPoly                004826b4 f   cvd:CVd.dll
 0001:000816ba       _cvCreateImage             004826ba f   cvd:CVd.dll
 0001:000816c0       _cvClearMemStorage         004826c0 f   cvd:CVd.dll
 0001:000816c6       _cvApproxChains            004826c6 f   cvd:CVd.dll
 0001:000816cc       _cvReadChainPoint          004826cc f   cvd:CVd.dll
 0001:000816d2       _cvStartReadChainPoints    004826d2 f   cvd:CVd.dll
 0001:000816d8       _cvDrawContours            004826d8 f   cvd:CVd.dll
 0001:000816de       _cvFindContours            004826de f   cvd:CVd.dll
 0001:000816e4       _cvThreshold               004826e4 f   cvd:CVd.dll
 0001:000816ea       _cvSetSeqReaderPos         004826ea f   cvd:CVd.dll
 0001:000816f0       _cvCvtSeqToArray           004826f0 f   cvd:CVd.dll
 0001:000816f6       _cvContourPerimeter        004826f6 f   cvd:CVd.dll
 0001:000816fc       _cvMatchContours           004826fc f   cvd:CVd.dll
 0001:00081702       _cvContourFromContourTree  00482702 f   cvd:CVd.dll
 0001:00081708       _cvCreateContourTree       00482708 f   cvd:CVd.dll
 0001:0008170e       _cvMatchContourTrees       0048270e f   cvd:CVd.dll
 0001:00081714       _cvbRand                   00482714 f   cvd:CVd.dll
 0001:0008171a       _cvRandInit                0048271a f   cvd:CVd.dll
 0001:00081720       _cvPyrDown                 00482720 f   cvd:CVd.dll
 0001:00081726       _cvPyrUp                   00482726 f   cvd:CVd.dll
 0001:0008172c       _cvGetSeqElem              0048272c f   cvd:CVd.dll
 0001:00081732       _cvPyrSegmentation         00482732 f   cvd:CVd.dll
 0001:00081738       _cvEndProfile              00482738 f   cvd:CVd.dll
 0001:0008173e       _cvStartProfile            0048273e f   cvd:CVd.dll
 0001:00081744       _cvDistTransform           00482744 f   cvd:CVd.dll
 0001:0008174a       _cvGetRawData              0048274a f   cvd:CVd.dll
 0001:00081750       _cvAdaptiveThreshold       00482750 f   cvd:CVd.dll
 0001:00081756       _cvCamShift                00482756 f   cvd:CVd.dll
 0001:0008175c       _cvMeanShift               0048275c f   cvd:CVd.dll
 0001:00081762       _cvReleaseHist             00482762 f   cvd:CVd.dll
 0001:00081768       _cvGetMinMaxHistValue      00482768 f   cvd:CVd.dll
 0001:0008176e       _cvCalcContrastHist        0048276e f   cvd:CVd.dll
 0001:00081774       _cvSetHistBinRanges        00482774 f   cvd:CVd.dll
 0001:0008177a       _cvCreateHist              0048277a f   cvd:CVd.dll
 0001:00081780       _cvCalcEMD                 00482780 f   cvd:CVd.dll
 0001:00081786       _cvGetHistValue_3D         00482786 f   cvd:CVd.dll
 0001:0008178c       _cvGetHistValue_2D         0048278c f   cvd:CVd.dll
 0001:00081792       _cvGetHistValue_1D         00482792 f   cvd:CVd.dll
 0001:00081798       _cvQueryHistValue_3D       00482798 f   cvd:CVd.dll
 0001:0008179e       _cvQueryHistValue_2D       0048279e f   cvd:CVd.dll
 0001:000817a4       _cvQueryHistValue_1D       004827a4 f   cvd:CVd.dll
 0001:000817aa       _cvQueryHistValue_nD       004827aa f   cvd:CVd.dll
 0001:000817b0       _cvGetHistValue_nD         004827b0 f   cvd:CVd.dll
 0001:000817b6       _cvNormalizeHist           004827b6 f   cvd:CVd.dll
 0001:000817bc       _cvThreshHist              004827bc f   cvd:CVd.dll
 0001:000817c2       _cvCompareHist             004827c2 f   cvd:CVd.dll
 0001:000817c8       _cvCopyHist                004827c8 f   cvd:CVd.dll
 0001:000817ce       _cvCalcHist                004827ce f   cvd:CVd.dll
 0001:000817d4       _cvCalcBackProject         004827d4 f   cvd:CVd.dll
 0001:000817da       _cvCalcBackProjectPatch    004827da f   cvd:CVd.dll
 0001:000817e0       _cvReleaseImageHeader      004827e0 f   cvd:CVd.dll
 0001:000817e6       _cvSetData                 004827e6 f   cvd:CVd.dll
 0001:000817ec       _cvCreateImageHeader       004827ec f   cvd:CVd.dll
 0001:000817f2       _cvCalcBayesianProb        004827f2 f   cvd:CVd.dll
 0001:000817f8       _cvFloodFill               004827f8 f   cvd:CVd.dll
 0001:000817fe       _cvEllipse                 004827fe f   cvd:CVd.dll
 0001:00081804       _cvGetCentralMoment        00482804 f   cvd:CVd.dll
 0001:0008180a       _cvGetSpatialMoment        0048280a f   cvd:CVd.dll
 0001:00081810       _cvGetMat                  00482810 f   cvd:CVd.dll
 0001:00081816       _cvSet                     00482816 f   cvd:CVd.dll
 0001:0008181c       _cvSetAt                   0048281c f   cvd:CVd.dll
 0001:00081822       _cvInitMatHeader           00482822 f   cvd:CVd.dll
 0001:00081828       _cvReleaseStructuringElement 00482828 f   cvd:CVd.dll
 0001:0008182e       _cvDilate                  0048282e f   cvd:CVd.dll
 0001:00081834       _cvErode                   00482834 f   cvd:CVd.dll
 0001:0008183a       _cvCreateStructuringElementEx 0048283a f   cvd:CVd.dll
 0001:00081840       _cvCountNonZero            00482840 f   cvd:CVd.dll
 0001:00081846       _cvSum                     00482846 f   cvd:CVd.dll
 0001:0008184c       _cvAvg                     0048284c f   cvd:CVd.dll
 0001:00081852       _cvAvgSdv                  00482852 f   cvd:CVd.dll
 0001:00081858       _cvMinMaxLoc               00482858 f   cvd:CVd.dll
 0001:0008185e       _cvMoments                 0048285e f   cvd:CVd.dll
 0001:00081864       _cvGetHuMoments            00482864 f   cvd:CVd.dll
 0001:0008186a       _cvGetNormalizedCentralMoment 0048286a f   cvd:CVd.dll
 0001:00081870       _cvNorm                    00482870 f   cvd:CVd.dll
 0001:00081876       _cvHoughLinesSDiv          00482876 f   cvd:CVd.dll
 0001:0008187c       _cvHoughLinesP             0048287c f   cvd:CVd.dll
 0001:00081882       _cvHoughLines              00482882 f   cvd:CVd.dll
 0001:00081888       _cvConvexHull              00482888 f   cvd:CVd.dll
 0001:0008188e       _cvConvexHullApprox        0048288e f   cvd:CVd.dll
 0001:00081894       _cvContourConvexHull       00482894 f   cvd:CVd.dll
 0001:0008189a       _cvContourConvexHullApprox 0048289a f   cvd:CVd.dll
 0001:000818a0       _cvEndWriteSeq             004828a0 f   cvd:CVd.dll
 0001:000818a6       _cvCreateSeqBlock          004828a6 f   cvd:CVd.dll
 0001:000818ac       _cvStartWriteSeq           004828ac f   cvd:CVd.dll
 0001:000818b2       _cvFitEllipse              004828b2 f   cvd:CVd.dll
 0001:000818b8       _cvProject3D               004828b8 f   cvd:CVd.dll
 0001:000818be       _cvFitLine3D               004828be f   cvd:CVd.dll
 0001:000818c4       _cvFitLine2D               004828c4 f   cvd:CVd.dll
 0001:000818ca       _cvMinAreaRect             004828ca f   cvd:CVd.dll
 0001:000818d0       _cvSeqPushMulti            004828d0 f   cvd:CVd.dll
 0001:000818d6       _cvCalcSubdivVoronoi2D     004828d6 f   cvd:CVd.dll
 0001:000818dc       _cvSubdivDelaunay2DInsert  004828dc f   cvd:CVd.dll
 0001:000818e2       _cvFlushSeqWriter          004828e2 f   cvd:CVd.dll
 0001:000818e8       _cvSeqElemIdx              004828e8 f   cvd:CVd.dll
 0001:000818ee       _cvSubdiv2DLocate          004828ee f   cvd:CVd.dll
 0001:000818f4       _cvStartAppendToSeq        004828f4 f   cvd:CVd.dll
 0001:000818fa       _cvInitSubdivDelaunay2D    004828fa f   cvd:CVd.dll
 0001:00081900       _cvCreateSubdiv2D          00482900 f   cvd:CVd.dll
 0001:00081906       _cvEigenProjection         00482906 f   cvd:CVd.dll
 0001:0008190c       _cvEigenDecomposite        0048290c f   cvd:CVd.dll
 0001:00081912       _cvCalcDecompCoeff         00482912 f   cvd:CVd.dll
 0001:00081918       _cvCalcEigenObjects        00482918 f   cvd:CVd.dll
 0001:0008191e       _cvCalcCovarMatrixEx       0048291e f   cvd:CVd.dll
 0001:00081924       _cvSetImageROI             00482924 f   cvd:CVd.dll
 0001:0008192a       _cvAbsDiff                 0048292a f   cvd:CVd.dll
 0001:00081930       _cvAbsDiffS                00482930 f   cvd:CVd.dll
 0001:00081936       _cvAcc                     00482936 f   cvd:CVd.dll
 0001:0008193c       _cvCloneImage              0048293c f   cvd:CVd.dll
 0001:00081942       _cvSquareAcc               00482942 f   cvd:CVd.dll
 0001:00081948       _cvMultiplyAcc             00482948 f   cvd:CVd.dll
 0001:0008194e       _cvRunningAvg              0048294e f   cvd:CVd.dll
 0001:00081954       _cvCvtPixToPlane           00482954 f   cvd:CVd.dll
 0001:0008195a       _cvCvtPlaneToPix           0048295a f   cvd:CVd.dll
 0001:00081960       _cvConvertScale            00482960 f   cvd:CVd.dll
 0001:00081966       _cvConvertScaleAbs         00482966 f   cvd:CVd.dll
 0001:0008196c       _cvKMeans                  0048296c f   cvd:CVd.dll
 0001:00081972       _cvbFastArctan             00482972 f   cvd:CVd.dll
 0001:00081978       _cvbSqrt                   00482978 f   cvd:CVd.dll
 0001:0008197e       _cvbInvSqrt                0048297e f   cvd:CVd.dll
 0001:00081984       _cvbCartToPolar            00482984 f   cvd:CVd.dll
 0001:0008198a       _cvbReciprocal             0048298a f   cvd:CVd.dll
 0001:00081990       _cvbFastLog                00482990 f   cvd:CVd.dll
 0001:00081996       _cvbFastExp                00482996 f   cvd:CVd.dll
 0001:0008199c       _cvSampleLine              0048299c f   cvd:CVd.dll
 0001:000819a2       _cvInitLineIterator        004829a2 f   cvd:CVd.dll
 0001:000819a8       _cvGetRectSubPix           004829a8 f   cvd:CVd.dll
 0001:000819ae       _cvMatchTemplate           004829ae f   cvd:CVd.dll
 0001:000819b4       _cvGetSeqReaderPos         004829b4 f   cvd:CVd.dll
 0001:000819ba       _cvSetSeqBlockSize         004829ba f   cvd:CVd.dll
 0001:000819c0       _cvSeqPopFront             004829c0 f   cvd:CVd.dll
 0001:000819c6       _cvSeqPushFront            004829c6 f   cvd:CVd.dll
 0001:000819cc       _cvSeqPopMulti             004829cc f   cvd:CVd.dll
 0001:000819d2       _cvSeqRemove               004829d2 f   cvd:CVd.dll
 0001:000819d8       _cvSeqInsert               004829d8 f   cvd:CVd.dll
 0001:000819de       _cvSeqPop                  004829de f   cvd:CVd.dll
 0001:000819e4       _cvSetRemove               004829e4 f   cvd:CVd.dll
 0001:000819ea       _cvGetSetElem              004829ea f   cvd:CVd.dll
 0001:000819f0       _cvSetAdd                  004829f0 f   cvd:CVd.dll
 0001:000819f6       _cvCreateSet               004829f6 f   cvd:CVd.dll
 0001:000819fc       _cvClearSet                004829fc f   cvd:CVd.dll
 0001:00081a02       _cvGraphRemoveEdge         00482a02 f   cvd:CVd.dll
 0001:00081a08       _cvFindGraphEdge           00482a08 f   cvd:CVd.dll
 0001:00081a0e       _cvGraphAddEdge            00482a0e f   cvd:CVd.dll
 0001:00081a14       _cvGraphRemoveVtxByPtr     00482a14 f   cvd:CVd.dll
 0001:00081a1a       _cvGraphRemoveVtx          00482a1a f   cvd:CVd.dll
 0001:00081a20       _cvGraphVtxDegreeByPtr     00482a20 f   cvd:CVd.dll
 0001:00081a26       _cvGraphVtxDegree          00482a26 f   cvd:CVd.dll
 0001:00081a2c       _cvGraphAddVtx             00482a2c f   cvd:CVd.dll
 0001:00081a32       _cvCreateGraph             00482a32 f   cvd:CVd.dll
 0001:00081a38       _cvClearGraph              00482a38 f   cvd:CVd.dll
 0001:00081a3e       _cvEllipseAA               00482a3e f   cvd:CVd.dll
 0001:00081a44       _cvLineAA                  00482a44 f   cvd:CVd.dll
 0001:00081a4a       _cvPutText                 00482a4a f   cvd:CVd.dll
 0001:00081a50       _cvInitFont                00482a50 f   cvd:CVd.dll
 0001:00081a56       _cvPolyLineAA              00482a56 f   cvd:CVd.dll
 0001:00081a5c       _cvPolyLine                00482a5c f   cvd:CVd.dll
 0001:00081a62       _cvFillConvexPoly          00482a62 f   cvd:CVd.dll
 0001:00081a68       _cvCircleAA                00482a68 f   cvd:CVd.dll
 0001:00081a6e       _cvCircle                  00482a6e f   cvd:CVd.dll
 0001:00081a74       _cvRectangle               00482a74 f   cvd:CVd.dll
 0001:00081a7a       _cvUpdateMotionHistory     00482a7a f   cvd:CVd.dll
 0001:00081a80       _cvCalcMotionGradient      00482a80 f   cvd:CVd.dll
 0001:00081a86       _cvCalcGlobalOrientation   00482a86 f   cvd:CVd.dll
 0001:00081a8c       _cvSegmentMotion           00482a8c f   cvd:CVd.dll
 0001:00081a92       _cvCalcOpticalFlowHS       00482a92 f   cvd:CVd.dll
 0001:00081a98       _cvCalcOpticalFlowLK       00482a98 f   cvd:CVd.dll
 0001:00081a9e       _cvCalcOpticalFlowPyrLK    00482a9e f   cvd:CVd.dll
 0001:00081aa4       _cvCalcProbDensity         00482aa4 f   cvd:CVd.dll
 0001:00081aaa       _cvMaxRect                 00482aaa f   cvd:CVd.dll
 0001:00081ab0       _cvCalcImageHomography     00482ab0 f   cvd:CVd.dll
 0001:00081ab6       _cvCreateHandMask          00482ab6 f   cvd:CVd.dll
 0001:00081abc       _cvFindHandRegion          00482abc f   cvd:CVd.dll
 0001:00081ac2       _cvLaplace                 00482ac2 f   cvd:CVd.dll
 0001:00081ac8       _cvSobel                   00482ac8 f   cvd:CVd.dll
 0001:00081ace       _cvReleaseData             00482ace f   cvd:CVd.dll
 0001:00081ad4       _cvMahalanobis             00482ad4 f   cvd:CVd.dll
 0001:00081ada       _cvMulTransposed           00482ada f   cvd:CVd.dll
 0001:00081ae0       _cvInvert                  00482ae0 f   cvd:CVd.dll
 0001:00081ae6       _cvTranspose               00482ae6 f   cvd:CVd.dll
 0001:00081aec       _cvMatMulAdd               00482aec f   cvd:CVd.dll
 0001:00081af2       _cvSub                     00482af2 f   cvd:CVd.dll
 0001:00081af8       _cvCopy                    00482af8 f   cvd:CVd.dll
 0001:00081afe       _cvAdd                     00482afe f   cvd:CVd.dll
 0001:00081b04       _cvSetIdentity             00482b04 f   cvd:CVd.dll
 0001:00081b0a       _cvSetZero                 00482b0a f   cvd:CVd.dll
 0001:00081b10       _cvCreateData              00482b10 f   cvd:CVd.dll
 0001:00081b16       _cvDet                     00482b16 f   cvd:CVd.dll
 0001:00081b1c       _cvEigenVV                 00482b1c f   cvd:CVd.dll
 0001:00081b22       _cvTrace                   00482b22 f   cvd:CVd.dll
 0001:00081b28       _cvCrossProduct            00482b28 f   cvd:CVd.dll
 0001:00081b2e       _cvDotProduct              00482b2e f   cvd:CVd.dll
 0001:00081b34       _cvPerspectiveTransform    00482b34 f   cvd:CVd.dll
 0001:00081b3a       _cvReshape                 00482b3a f   cvd:CVd.dll
 0001:00081b40       _cvReleaseMat              00482b40 f   cvd:CVd.dll
 0001:00081b46       _cvSVD                     00482b46 f   cvd:CVd.dll
 0001:00081b4c       _cvCreateMat               00482b4c f   cvd:CVd.dll
 0001:00081b52       _cvCanny                   00482b52 f   cvd:CVd.dll
 0001:00081b58       _cvCornerEigenValsAndVecs  00482b58 f   cvd:CVd.dll
 0001:00081b5e       _cvCornerMinEigenVal       00482b5e f   cvd:CVd.dll
 0001:00081b64       _cvPreCornerDetect         00482b64 f   cvd:CVd.dll
 0001:00081b6a       _cvFree                    00482b6a f   cvd:CVd.dll
 0001:00081b70       _cvXorS                    00482b70 f   cvd:CVd.dll
 0001:00081b76       _cvRand                    00482b76 f   cvd:CVd.dll
 0001:00081b7c       _cvRandSetRange            00482b7c f   cvd:CVd.dll
 0001:00081b82       _cvRandNext                00482b82 f   cvd:CVd.dll
 0001:00081b88       _cvAlloc                   00482b88 f   cvd:CVd.dll
 0001:00081b8e       _cvSubRS                   00482b8e f   cvd:CVd.dll
 0001:00081b94       _cvAddS                    00482b94 f   cvd:CVd.dll
 0001:00081b9a       _cvMul                     00482b9a f   cvd:CVd.dll
 0001:00081ba0       _cvInitImageHeader         00482ba0 f   cvd:CVd.dll
 0001:00081ba6       _cvSetImageCOI             00482ba6 f   cvd:CVd.dll
 0001:00081bac       _cvGetImageROI             00482bac f   cvd:CVd.dll
 0001:00081bb2       _cvXor                     00482bb2 f   cvd:CVd.dll
 0001:00081bb8       _cvOrS                     00482bb8 f   cvd:CVd.dll
 0001:00081bbe       _cvOr                      00482bbe f   cvd:CVd.dll
 0001:00081bc4       _cvAndS                    00482bc4 f   cvd:CVd.dll
 0001:00081bca       _cvAnd                     00482bca f   cvd:CVd.dll
 0001:00081bd0       _cvReleasePOSITObject      00482bd0 f   cvd:CVd.dll
 0001:00081bd6       _cvPOSIT                   00482bd6 f   cvd:CVd.dll
 0001:00081bdc       _cvCreatePOSITObject       00482bdc f   cvd:CVd.dll
 0001:00081be2       _cvReleaseConDensation     00482be2 f   cvd:CVd.dll
 0001:00081be8       _cvConDensUpdateByTime     00482be8 f   cvd:CVd.dll
 0001:00081bee       _cvConDensInitSampleSet    00482bee f   cvd:CVd.dll
 0001:00081bf4       _cvCreateConDensation      00482bf4 f   cvd:CVd.dll
 0001:00081bfa       _cvReleaseKalman           00482bfa f   cvd:CVd.dll
 0001:00081c00       _cvKalmanUpdateByTime      00482c00 f   cvd:CVd.dll
 0001:00081c06       _cvKalmanUpdateByMeasurement 00482c06 f   cvd:CVd.dll
 0001:00081c0c       _cvCreateKalman            00482c0c f   cvd:CVd.dll
 0001:00081c12       _cvSnakeImage              00482c12 f   cvd:CVd.dll
 0001:00081c18       _cvProjectPointsSimple     00482c18 f   cvd:CVd.dll
 0001:00081c1e       _cvCalibrateCamera_64d     00482c1e f   cvd:CVd.dll
 0001:00081c24       _cvFindCornerSubPix        00482c24 f   cvd:CVd.dll
 0001:00081c2a       _cvFindChessBoardCornerGuesses 00482c2a f   cvd:CVd.dll
 0001:00081c30       _cvCvtColor                00482c30 f   cvd:CVd.dll
 0001:00081c36       _cvUnDistortOnce           00482c36 f   cvd:CVd.dll
 0001:00081c3c       _cvUnDistort               00482c3c f   cvd:CVd.dll
 0001:00081c42       _cvUnDistortInit           00482c42 f   cvd:CVd.dll
 0001:00081c48       _cvImgToObs_DCT            00482c48 f   cvd:CVd.dll
 0001:00081c50       _cblas_sdot                00482c50 f   mkl_c:sdot.obj
 0001:00081c74       _cblas_sgemv               00482c74 f   mkl_c:sgemv.obj
 0001:00081e98       _cblas_saxpy               00482e98 f   mkl_c:saxpy.obj
 0001:00081ec0       _cblas_dgemm               00482ec0 f   mkl_c:cblas_d3.obj
 0001:00082187       _cblas_dsymm               00483187 f   mkl_c:cblas_d3.obj
 0001:00082418       _cblas_dsyrk               00483418 f   mkl_c:cblas_d3.obj
 0001:00082640       _cblas_dsyr2k              00483640 f   mkl_c:cblas_d3.obj
 0001:000828c4       _cblas_dtrmm               004838c4 f   mkl_c:cblas_d3.obj
 0001:00082b6d       _cblas_dtrsm               00483b6d f   mkl_c:cblas_d3.obj
 0001:00082e18       _cblas_sgemm               00483e18 f   mkl_c:cblas_s3.obj
 0001:000830df       _cblas_ssymm               004840df f   mkl_c:cblas_s3.obj
 0001:00083370       _cblas_ssyrk               00484370 f   mkl_c:cblas_s3.obj
 0001:00083598       _cblas_ssyr2k              00484598 f   mkl_c:cblas_s3.obj
 0001:0008381c       _cblas_strmm               0048481c f   mkl_c:cblas_s3.obj
 0001:00083ac5       _cblas_strsm               00484ac5 f   mkl_c:cblas_s3.obj
 0001:00083d70       _F77_sdot                  00484d70 f   mkl_c:_sdot.obj
 0001:00083da4       _cblas_xerbla              00484da4 f   mkl_c:c_xerbla.obj
 0001:00083dc0       _F77_sgemv                 00484dc0 f   mkl_c:_sgemv.obj
 0001:00083e28       _F77_saxpy                 00484e28 f   mkl_c:_saxpy.obj
 0001:00083e64       _F77_dgemm                 00484e64 f   mkl_c:_dgemm.obj
 0001:00083ee0       _F77_dsymm                 00484ee0 f   mkl_c:_dsymm.obj
 0001:00083f54       _F77_dsyrk                 00484f54 f   mkl_c:_dsyrk.obj
 0001:00083fbc       _F77_dsyr2k                00484fbc f   mkl_c:_dsyr2k.obj
 0001:00084030       _F77_dtrmm                 00485030 f   mkl_c:_dtrmm.obj
 0001:000840ac       _F77_dtrsm                 004850ac f   mkl_c:_dtrsm.obj
 0001:00084128       _F77_sgemm                 00485128 f   mkl_c:_sgemm.obj
 0001:000841a4       _F77_ssymm                 004851a4 f   mkl_c:_ssymm.obj
 0001:00084218       _F77_ssyrk                 00485218 f   mkl_c:_ssyrk.obj
 0001:00084280       _F77_ssyr2k                00485280 f   mkl_c:_ssyr2k.obj
 0001:000842f4       _F77_strmm                 004852f4 f   mkl_c:_strmm.obj
 0001:00084370       _F77_strsm                 00485370 f   mkl_c:_strsm.obj
 0001:000843f0       ___?MKL@LIB?_sdot          004853f0 f   mkl_c:sdot.obj
 0001:00084550       ___?MKL@LIB?_sgemv         00485550 f   mkl_c:sgemv.obj
 0001:000850b0       ___?MKL@LIB?_saxpy         004860b0 f   mkl_c:saxpy.obj
 0001:00085250       ___?MKL@LIB?_dgemm         00486250 f   mkl_c:dgemm.obj
 0001:00085760       ___?MKL@LIB?_dsymm         00486760 f   mkl_c:dsymm.obj
 0001:00085d90       ___?MKL@LIB?_dsyrk         00486d90 f   mkl_c:dsyrk.obj
 0001:00086600       ___?MKL@LIB?_dsyr2k        00487600 f   mkl_c:dsyr2k.obj
 0001:00087520       ___?MKL@LIB?_dtrmm         00488520 f   mkl_c:dtrmm.obj
 0001:00087a10       ___?MKL@LIB?_dtrsm         00488a10 f   mkl_c:dtrsm.obj
 0001:00087f00       ___?MKL@LIB?_sgemm         00488f00 f   mkl_c:sgemm.obj
 0001:00088b20       ___?MKL@LIB?_ssymm         00489b20 f   mkl_c:ssymm.obj
 0001:000891a0       ___?MKL@LIB?_ssyrk         0048a1a0 f   mkl_c:ssyrk.obj
 0001:0008a9e0       ___?MKL@LIB?_ssyr2k        0048b9e0 f   mkl_c:ssyr2k.obj
 0001:0008b920       ___?MKL@LIB?_strmm         0048c920 f   mkl_c:strmm.obj
 0001:0008bec0       ___?MKL@LIB?_strsm         0048cec0 f   mkl_c:strsm.obj
 0001:0008c410       ___?MKL@LIB?_sgemvtaa      0048d410 f   mkl_c:sgemvtaa.obj
 0001:0008ced0       ___?MKL@LIB?_sgemvtoo      0048ded0 f   mkl_c:sgemvtoo.obj
 0001:0008d980       ___?MKL@LIB?_sgemvnaa      0048e980 f   mkl_c:sgemvnaa.obj
 0001:0008e010       ___?MKL@LIB?_sgemvpst      0048f010 f   mkl_c:sgemvpst.obj
 0001:0008ea10       ___?MKL@LIB?_sgemvnoo      0048fa10 f   mkl_c:sgemvnoo.obj
 0001:0008f040       ___?MKL@LIB?_lsame         00490040 f   mkl_c:lsame.obj
 0001:0008f080       ___?MKL@LIB?_smp_setnprocessors 00490080 f   mkl_c:smp.obj
 0001:0008f296       ___?MKL@LIB?_smp_init      00490296 f   mkl_c:smp.obj
 0001:0008f454       ___?MKL@LIB?_smp_hide      00490454 f   mkl_c:smp.obj
 0001:0008f58b       ___?MKL@LIB?_smp_exec      0049058b f   mkl_c:smp.obj
 0001:0008f674       ___?MKL@LIB?_smp_busy      00490674 f   mkl_c:smp.obj
 0001:0008f6a1       ___?MKL@LIB?_smp_wait      004906a1 f   mkl_c:smp.obj
 0001:0008f6d0       ___?MKL@LIB?_smp_waitall   004906d0 f   mkl_c:smp.obj
 0001:0008f713       ___?MKL@LIB?_smp_waitany   00490713 f   mkl_c:smp.obj
 0001:0008f759       ___?MKL@LIB?_smp_exit      00490759 f   mkl_c:smp.obj
 0001:0008f7d2       ___?MKL@LIB?_smp_selfnumber 004907d2 f   mkl_c:smp.obj
 0001:0008f81e       ___?MKL@LIB?_smp_lock      0049081e f   mkl_c:smp.obj
 0001:0008f831       ___?MKL@LIB?_smp_unlock    00490831 f   mkl_c:smp.obj
 0001:0008f842       ___?MKL@LIB?_smp_setlocal  00490842 f   mkl_c:smp.obj
 0001:0008f8fe       ___?MKL@LIB?_smp_getlocal  004908fe f   mkl_c:smp.obj
 0001:0008f9c0       ___?MKL@LIB?_xdgemm        004909c0 f   mkl_c:xdgemm.obj
 0001:00097958       ___?MKL@LIB?_xerbla        00498958 f   mkl_c:__xerbla.obj
 0001:00097960       ___?MKL@LIB?_xdsymm        00498960 f   mkl_c:xdsymm.obj
 0001:0009b070       ___?MKL@LIB?_xdsyrk        0049c070 f   mkl_c:xdsyrk.obj
 0001:0009c3a0       ___?MKL@LIB?_xdsyr2k       0049d3a0 f   mkl_c:xdsyr2k.obj
 0001:0009e290       ___?MKL@LIB?_xdtrmm        0049f290 f   mkl_c:xdtrmm.obj
 0001:0009f0c0       ___?MKL@LIB?_xdtrsm        004a00c0 f   mkl_c:xdtrsm.obj
 0001:000a0340       ___?MKL@LIB?_xsgemm        004a1340 f   mkl_c:xsgemm.obj
 0001:000a6940       ___?MKL@LIB?_xssymm        004a7940 f   mkl_c:xssymm.obj
 0001:000aa0c0       ___?MKL@LIB?_xssyrk        004ab0c0 f   mkl_c:xssyrk.obj
 0001:000ab4d0       ___?MKL@LIB?_xssyr2k       004ac4d0 f   mkl_c:xssyr2k.obj
 0001:000ad430       ___?MKL@LIB?_xstrmm        004ae430 f   mkl_c:xstrmm.obj
 0001:000ae240       ___?MKL@LIB?_xstrsm        004af240 f   mkl_c:xstrsm.obj
 0001:000af490       ___?MKL@LIB?_smp_push_and_call 004b0490 f   mkl_c:smpserv.obj
 0001:000af4c4       ___?MKL@LIB?_smp_clock_count 004b04c4 f   mkl_c:smpserv.obj
 0001:000af4db       ___?MKL@LIB?_smp_get_nproc 004b04db f   mkl_c:smpserv.obj
 0001:000af4e1       ___?MKL@LIB?_smp_set_nproc 004b04e1 f   mkl_c:smpserv.obj
 0001:000af4f0       ___?MKL@LIB?_dpst_ttk      004b04f0 f   mkl_c:dpst_ttk.obj
 0001:000af7c0       ___?MKL@LIB?_dpst_ttm      004b07c0 f   mkl_c:dpst_ttm.obj
 0001:000b0fc0       ___?MKL@LIB?_dpst_ntk      004b1fc0 f   mkl_c:dpst_ntk.obj
 0001:000b11d0       ___?MKL@LIB?_dgtrbtp       004b21d0 f   mkl_c:dgtrbtp.obj
 0001:000b12f0       ___?MKL@LIB?_dpst_ntm      004b22f0 f   mkl_c:dpst_ntm.obj
 0001:000b24b0       ___?MKL@LIB?_dgtrbn        004b34b0 f   mkl_c:dgtrbn.obj
 0001:000b2690       ___?MKL@LIB?_dpst_tnk      004b3690 f   mkl_c:dpst_tnk.obj
 0001:000b2af0       ___?MKL@LIB?_dgtratp       004b3af0 f   mkl_c:dgtratp.obj
 0001:000b2c80       ___?MKL@LIB?_dpst_tnm      004b3c80 f   mkl_c:dpst_tnm.obj
 0001:000b40b0       ___?MKL@LIB?_dgtrat        004b50b0 f   mkl_c:dgtrat.obj
 0001:000b4220       ___?MKL@LIB?_din16_16      004b5220 f   mkl_c:din16_16.obj
 0001:000b4f30       ___?MKL@LIB?_din16_32      004b5f30 f   mkl_c:din16_32.obj
 0001:000b69c0       ___?MKL@LIB?_din8_48       004b79c0 f   mkl_c:din8_48.obj
 0001:000b7dd0       ___?MKL@LIB?_dpst_nnk      004b8dd0 f   mkl_c:dpst_nnk.obj
 0001:000b7fe0       ___?MKL@LIB?_dgtranp       004b8fe0 f   mkl_c:dgtranp.obj
 0001:000b80e0       ___?MKL@LIB?_dgtrbnp       004b90e0 f   mkl_c:dgtrbnp.obj
 0001:000b81e0       ___?MKL@LIB?_dpst_nnm      004b91e0 f   mkl_c:dpst_nnm.obj
 0001:000b9470       ___?MKL@LIB?_din4_64       004ba470 f   mkl_c:din4_64.obj
 0001:000ba1e0       ___?MKL@LIB?_din8_64       004bb1e0 f   mkl_c:din8_64.obj
 0001:000bbcb0       ___?MKL@LIB?_dgtran        004bccb0 f   mkl_c:dgtran.obj
 0001:000bbd88       ___?MKL@LIB?_chkstk        004bcd88 f   mkl_c:chkstk.obj
 0001:000bbda0       _xerbla                    004bcda0 f   mkl_c:_xerbla.obj
 0001:000bbda0       _XERBLA                    004bcda0 f   mkl_c:_xerbla.obj
 0001:000bbdd0       ___?MKL@LIB?_dtrmrt        004bcdd0 f   mkl_c:dtrmrt.obj
 0001:000bc820       ___?MKL@LIB?_dtrmrn        004bd820 f   mkl_c:dtrmrn.obj
 0001:000bd270       ___?MKL@LIB?_dtrmlt        004be270 f   mkl_c:dtrmlt.obj
 0001:000bdd10       ___?MKL@LIB?_dtrmln        004bed10 f   mkl_c:dtrmln.obj
 0001:000be5b0       ___?MKL@LIB?_dtrsmrt       004bf5b0 f   mkl_c:dtrsmrt.obj
 0001:000bf290       ___?MKL@LIB?_dtrsmrn       004c0290 f   mkl_c:dtrsmrn.obj
 0001:000bff50       ___?MKL@LIB?_dtrsmlt       004c0f50 f   mkl_c:dtrsmlt.obj
 0001:000c0ae0       ___?MKL@LIB?_dtrsmlln      004c1ae0 f   mkl_c:dtrsmlln.obj
 0001:000c1100       ___?MKL@LIB?_dtrsmlun      004c2100 f   mkl_c:dtrsmlun.obj
 0001:000c1730       ___?MKL@LIB?_sgpstttk      004c2730 f   mkl_c:sgpstttk.obj
 0001:000c1a00       ___?MKL@LIB?_sgpstttm      004c2a00 f   mkl_c:sgpstttm.obj
 0001:000c24d0       ___?MKL@LIB?_sgtrats       004c34d0 f   mkl_c:sgtrats.obj
 0001:000c2a40       ___?MKL@LIB?_sgtrbtp       004c3a40 f   mkl_c:sgtrbtp.obj
 0001:000c2b70       ___?MKL@LIB?_sgpstntk      004c3b70 f   mkl_c:sgpstntk.obj
 0001:000c2d80       ___?MKL@LIB?_sgpstntm      004c3d80 f   mkl_c:sgpstntm.obj
 0001:000c3740       ___?MKL@LIB?_sgemmins      004c4740 f   mkl_c:sgemmins.obj
 0001:000c3da0       ___?MKL@LIB?_sgtrans       004c4da0 f   mkl_c:sgtrans.obj
 0001:000c42c0       ___?MKL@LIB?_sgtrbs        004c52c0 f   mkl_c:sgtrbs.obj
 0001:000c4370       ___?MKL@LIB?_sgemmino      004c5370 f   mkl_c:sgemmino.obj
 0001:000c5d00       ___?MKL@LIB?_sgtrb         004c6d00 f   mkl_c:sgtrb.obj
 0001:000c5e20       ___?MKL@LIB?_spst_tnk      004c6e20 f   mkl_c:spst_tnk.obj
 0001:000c6280       ___?MKL@LIB?_sgtratp       004c7280 f   mkl_c:sgtratp.obj
 0001:000c6410       ___?MKL@LIB?_spst_tnm      004c7410 f   mkl_c:spst_tnm.obj
 0001:000c76c0       ___?MKL@LIB?_sgtrat        004c86c0 f   mkl_c:sgtrat.obj
 0001:000c7830       ___?MKL@LIB?_sin32_16      004c8830 f   mkl_c:sin32_16.obj
 0001:000c7b70       ___?MKL@LIB?_sin32_32      004c8b70 f   mkl_c:sin32_32.obj
 0001:000c81e0       ___?MKL@LIB?_sin16_48      004c91e0 f   mkl_c:sin16_48.obj
 0001:000c8bb0       ___?MKL@LIB?_spst_nnk      004c9bb0 f   mkl_c:spst_nnk.obj
 0001:000c8dc0       ___?MKL@LIB?_sgtranp       004c9dc0 f   mkl_c:sgtranp.obj
 0001:000c8ec0       ___?MKL@LIB?_sgtrbnp       004c9ec0 f   mkl_c:sgtrbnp.obj
 0001:000c8fd0       ___?MKL@LIB?_spst_nnm      004c9fd0 f   mkl_c:spst_nnm.obj
 0001:000ca250       ___?MKL@LIB?_sin8_64       004cb250 f   mkl_c:sin8_64.obj
 0001:000caf80       ___?MKL@LIB?_sin16_64      004cbf80 f   mkl_c:sin16_64.obj
 0001:000cbcb0       ___?MKL@LIB?_sgtran        004cccb0 f   mkl_c:sgtran.obj
 0001:000cbd90       ___?MKL@LIB?_strmrt        004ccd90 f   mkl_c:strmrt.obj
 0001:000cc7e0       ___?MKL@LIB?_strmrn        004cd7e0 f   mkl_c:strmrn.obj
 0001:000cd230       ___?MKL@LIB?_strmlt        004ce230 f   mkl_c:strmlt.obj
 0001:000cdcd0       ___?MKL@LIB?_strmln        004cecd0 f   mkl_c:strmln.obj
 0001:000ce570       ___?MKL@LIB?_strsm_blk     004cf570 f   mkl_c:strsm_i.obj
 0001:000cfb84       ___?MKL@LIB?_default_xerbla 004d0b84 f   mkl_c:xerbla.obj
 0001:000cfcc8       _iplGetCentralMoment@12    004d0cc8 f   ipl:ipl.dll
 0001:000cfcce       _iplGetSpatialMoment@12    004d0cce f   ipl:ipl.dll
 0001:000cfcd4       _iplMoments@8              004d0cd4 f   ipl:ipl.dll
 0001:000cfcda       _iplNorm@12                004d0cda f   ipl:ipl.dll
 0001:000cfce0       _iplSet@8                  004d0ce0 f   ipl:ipl.dll
 0001:000cfce6       _iplCopy@8                 004d0ce6 f   ipl:ipl.dll
 0001:000cfcec       _iplDeleteConvKernel@4     004d0cec f   ipl:ipl.dll
 0001:000cfcf2       _iplDeleteConvKernelFP@4   004d0cf2 f   ipl:ipl.dll
 0001:000cfcf8       _iplDecimate@28            004d0cf8 f   ipl:ipl.dll
 0001:000cfcfe       _iplConvolve2D@20          004d0cfe f   ipl:ipl.dll
 0001:000cfd04       _iplConvolve2DFP@20        004d0d04 f   ipl:ipl.dll
 0001:000cfd0a       _iplCreateConvKernel@24    004d0d0a f   ipl:ipl.dll
 0001:000cfd10       _iplCreateConvKernelFP@20  004d0d10 f   ipl:ipl.dll
 0001:000cfd16       _iplZoom@28                004d0d16 f   ipl:ipl.dll
 0001:000cfd1c       _iplGetErrStatus@0         004d0d1c f   ipl:ipl.dll
 0001:000cfd22       _iplAllocateImage@12       004d0d22 f   ipl:ipl.dll
 0001:000cfd28       _iplAllocateImageFP@12     004d0d28 f   ipl:ipl.dll
 0001:000cfd2e       _iplCreateImageHeader@56   004d0d2e f   ipl:ipl.dll
 0001:000cfd34       _iplDeallocate@8           004d0d34 f   ipl:ipl.dll
 0001:000cfd3a       _iplConvert@8              004d0d3a f   ipl:ipl.dll
 0001:000cfd40       _iplSetBorderMode@16       004d0d40 f   ipl:ipl.dll
 0001:000cfd46       _iplAndS@12                004d0d46 f   ipl:ipl.dll
 0001:000cfd4c       _iplAbs@8                  004d0d4c f   ipl:ipl.dll
 0001:000cfd52       _iplSubtract@12            004d0d52 f   ipl:ipl.dll
 0001:000cfd58       _iplSubtractSFP@16         004d0d58 f   ipl:ipl.dll
 0001:000cfd5e       _iplAdd@12                 004d0d5e f   ipl:ipl.dll
 0001:000cfd64       _iplMultiply@12            004d0d64 f   ipl:ipl.dll
 0001:000cfd6a       _iplMultiplySFP@12         004d0d6a f   ipl:ipl.dll
 0001:000cfd70       _iplGreaterS@12            004d0d70 f   ipl:ipl.dll
 0001:000cfd76       _iplThreshold@12           004d0d76 f   ipl:ipl.dll
 0001:000cfd7c       _iplMaxFilter@24           004d0d7c f   ipl:ipl.dll
 0001:000cfd82       _iplSubtractS@16           004d0d82 f   ipl:ipl.dll
 0001:000cfd88       _iplXor@12                 004d0d88 f   ipl:ipl.dll
 0001:000cfd8e       _iplSetErrMode@4           004d0d8e f   ipl:ipl.dll
 0001:000cfd94       _iplSetFP@8                004d0d94 f   ipl:ipl.dll
 0001:000cfd9a       _iplRGB2HSV@8              004d0d9a f   ipl:ipl.dll
 0001:000cfda0       _iplWarpPerspective@20     004d0da0 f   ipl:ipl.dll
 0001:000cfda6       _iplSetROI@24              004d0da6 f   ipl:ipl.dll
 0001:000cfdac       _iplGetPerspectiveBound@12 004d0dac f   ipl:ipl.dll
 0001:000cfdb2       _iplConvolveSep2DFP@16     004d0db2 f   ipl:ipl.dll
 0001:000cfdb8       _iplConvolveSep2D@16       004d0db8 f   ipl:ipl.dll
 0001:000cfdbe       _iplBlur@24                004d0dbe f   ipl:ipl.dll
 0001:000cfdc4       _iplDCT2D@12               004d0dc4 f   ipl:ipl.dll
 0001:000cfdca       _cvvSaveImage              004d0dca f   HighGUId:HighGUId.dll
 0001:000cfdd0       _cvvWaitKey                004d0dd0 f   HighGUId:HighGUId.dll
 0001:000cfdd6       _cvvShowImage              004d0dd6 f   HighGUId:HighGUId.dll
 0001:000cfddc       _cvvNamedWindow            004d0ddc f   HighGUId:HighGUId.dll
 0001:000cfde2       _cvvLoadImage              004d0de2 f   HighGUId:HighGUId.dll
 0001:000cfdf0       _atsGetSeed                004d0df0 f   atsd:randex.obj
 0001:000cfe1a       _atsRandSetBounds          004d0e1a f   atsd:randex.obj
 0001:000cff05       _atsRandInit               004d0f05 f   atsd:randex.obj
 0001:000cff2e       _atsRandSetFloatBits       004d0f2e f   atsd:randex.obj
 0001:000cff4a       _atsRand32f                004d0f4a f   atsd:randex.obj
 0001:000cffa4       _atsbRand32f               004d0fa4 f   atsd:randex.obj
 0001:000d0028       _atsbRand64d               004d1028 f   atsd:randex.obj
 0001:000d00ac       _atsRand32s                004d10ac f   atsd:randex.obj
 0001:000d011b       _atsRandPlain32s           004d111b f   atsd:randex.obj
 0001:000d0158       _atsRandPlane32f           004d1158 f   atsd:randex.obj
 0001:000d01ab       _atsbRand32s               004d11ab f   atsd:randex.obj
 0001:000d0269       _atsbRand16s               004d1269 f   atsd:randex.obj
 0001:000d0329       _atsbRand8u                004d1329 f   atsd:randex.obj
 0001:000d03e5       _atsbRand8s                004d13e5 f   atsd:randex.obj
 0001:000d0400       _cvRound                   004d1400 f i atsd:randex.obj
 0001:000d0420       _atsIsNaN                  004d1420 f   atsd:Common.obj
 0001:000d0460       _atsInitRandom             004d1460 f   atsd:initrand.obj
 0001:000d04ad       _ats1bInitRandom           004d14ad f   atsd:initrand.obj
 0001:000d052c       _ats1cInitRandom           004d152c f   atsd:initrand.obj
 0001:000d05ab       _ats1iInitRandom           004d15ab f   atsd:initrand.obj
 0001:000d0631       _ats1flInitRandom          004d1631 f   atsd:initrand.obj
 0001:000d06b2       _ats1flInitGradRandom      004d16b2 f   atsd:initrand.obj
 0001:000d07d0       _atsCompSingle             004d17d0 f   atsd:Comp1D.obj
 0001:000d0832       _atsCompSinglePrec         004d1832 f   atsd:Comp1D.obj
 0001:000d08d7       _atsCompDoublePrec         004d18d7 f   atsd:Comp1D.obj
 0001:000d097c       _atsCompare1Dfl            004d197c f   atsd:Comp1D.obj
 0001:000d0a45       _atsCompare2Dfl            004d1a45 f   atsd:Comp1D.obj
 0001:000d0b47       _atsCompare1Db             004d1b47 f   atsd:Comp1D.obj
 0001:000d0c00       _atsCompare2Db             004d1c00 f   atsd:Comp1D.obj
 0001:000d0cda       _atsCompare1Dc             004d1cda f   atsd:Comp1D.obj
 0001:000d0d7b       _atsCompare2Dc             004d1d7b f   atsd:Comp1D.obj
 0001:000d0e60       _atsbInitEllipse           004d1e60 f   atsd:initFigure.obj
 0001:000d0fa4       _atsfInitEllipse           004d1fa4 f   atsd:initFigure.obj
 0001:000d10f0       _atsInitModuleTestData     004d20f0 f   atsd:system.obj
 0001:000d116f       _atsGetTestDataPath        004d216f f   atsd:system.obj
 0001:000d1212       _atsLoadPrimitives         004d2212 f   atsd:system.obj
 0001:000d13d0       _atsReadMatrix             004d23d0 f   atsd:persistence.obj
 0001:000d1523       _atsWriteMatrix            004d2523 f   atsd:persistence.obj
 0001:000d15f0       _trsHighPriority           004d25f0 f   trsd:TRSAPI.OBJ
 0001:000d1610       _trsNormalPriority         004d2610 f   trsd:TRSAPI.OBJ
 0001:000d1630       _trsStatus                 004d2630 f   trsd:TRSAPI.OBJ
 0001:000d1650       _trsReadSource             004d2650 f   trsd:TRSAPI.OBJ
 0001:000d1670       _trsRegTerm                004d2670 f   trsd:TRSAPI.OBJ
 0001:000d16a0       _trsGet                    004d26a0 f   trsd:TRSAPI.OBJ
 0001:000d16c0       _trsGuardPattern           004d26c0 f   trsd:TRSAPI.OBJ
 0001:000d16f0       _trsGuardAllocated         004d26f0 f   trsd:TRSAPI.OBJ
 0001:000d1710       __trsGuardcAlloc           004d2710 f   trsd:TRSAPI.OBJ
 0001:000d18a0       __trsGuardCheck            004d28a0 f   trsd:TRSAPI.OBJ
 0001:000d1a30       __trsGuardFree             004d2a30 f   trsd:TRSAPI.OBJ
 0001:000d1ae0       __trsmAlloc                004d2ae0 f   trsd:TRSAPI.OBJ
 0001:000d1b30       _trsFree                   004d2b30 f   trsd:TRSAPI.OBJ
 0001:000d1b60       __trsreAlloc               004d2b60 f   trsd:TRSAPI.OBJ
 0001:000d1bb0       _trssbAllocate             004d2bb0 f   trsd:TRSAPI.OBJ
 0001:000d1c00       _trsdbAllocate             004d2c00 f   trsd:TRSAPI.OBJ
 0001:000d1c50       _trswbAllocate             004d2c50 f   trsd:TRSAPI.OBJ
 0001:000d1ca0       _trsibAllocate             004d2ca0 f   trsd:TRSAPI.OBJ
 0001:000d1cf0       _trslbAllocate             004d2cf0 f   trsd:TRSAPI.OBJ
 0001:000d1d40       _StringDup                 004d2d40 f   trsd:TRSAPI.OBJ
 0001:000d1dd0       _reStringDup               004d2dd0 f   trsd:TRSAPI.OBJ
 0001:000d1e20       _StringCat                 004d2e20 f   trsd:TRSAPI.OBJ
 0001:000d1ec0       _StringnCpy                004d2ec0 f   trsd:TRSAPI.OBJ
 0001:000d1f30       _SpaceCut                  004d2f30 f   trsd:TRSAPI.OBJ
 0001:000d1ff0       _StrParse                  004d2ff0 f   trsd:TRSAPI.OBJ
 0001:000d20e0       _BracketsParse             004d30e0 f   trsd:TRSAPI.OBJ
 0001:000d2240       __trsReg                   004d3240 f   trsd:TRSAPI.OBJ
 0001:000d2280       __trsRegArg                004d3280 f   trsd:TRSAPI.OBJ
 0001:000d2360       _trsMoreSize               004d3360 f   trsd:TRSAPI.OBJ
 0001:000d2390       _trsGetKeyArg              004d3390 f   trsd:TRSAPI.OBJ
 0001:000d23e0       _trsCommandLine            004d33e0 f   trsd:TRSAPI.OBJ
 0001:000d23f0       _trsRun                    004d33f0 f   trsd:TRSAPI.OBJ
 0001:000d42c0       _trsClocksPerSec           004d52c0 f   trsd:TRSAPI.OBJ
 0001:000d4360       _trsTimerStart             004d5360 f   trsd:TRSAPI.OBJ
 0001:000d4460       _trsTimerContinue          004d5460 f   trsd:TRSAPI.OBJ
 0001:000d44e0       _trsTimerStop              004d54e0 f   trsd:TRSAPI.OBJ
 0001:000d4580       _trsTimerClock             004d5580 f   trsd:TRSAPI.OBJ
 0001:000d45f0       _trsTimerSec               004d55f0 f   trsd:TRSAPI.OBJ
 0001:000d4620       _trsTimerUSec              004d5620 f   trsd:TRSAPI.OBJ
 0001:000d4650       _trsScaleInit              004d5650 f   trsd:TRSAPI.OBJ
 0001:000d4700       _trsScaleNextPoint         004d5700 f   trsd:TRSAPI.OBJ
 0001:000d4800       _trsPrintHelp              004d5800 f   trsd:TRSAPI.OBJ
 0001:000d4b10       __trssPrint                004d5b10 f   trsd:TRSAPI.OBJ
 0001:000d4b40       __trsdPrint                004d5b40 f   trsd:TRSAPI.OBJ
 0001:000d4b70       __trssbPrint               004d5b70 f   trsd:TRSAPI.OBJ
 0001:000d4bd0       __trsdbPrint               004d5bd0 f   trsd:TRSAPI.OBJ
 0001:000d4e40       _trsCSVString9             004d5e40 f   trsd:TRSAPI.OBJ
 0001:000d4f00       _trsCSVString10            004d5f00 f   trsd:TRSAPI.OBJ
 0001:000d4fd0       _trsCSVString11            004d5fd0 f   trsd:TRSAPI.OBJ
 0001:000d50b0       _trsCSVString5             004d60b0 f   trsd:TRSAPI.OBJ
 0001:000d50f0       _trsCSVString6             004d60f0 f   trsd:TRSAPI.OBJ
 0001:000d5130       _trsCSVString7             004d6130 f   trsd:TRSAPI.OBJ
 0001:000d5170       _trsCSVString8             004d6170 f   trsd:TRSAPI.OBJ
 0001:000d51b0       _trsFloat                  004d61b0 f   trsd:TRSAPI.OBJ
 0001:000d5230       _trsShort                  004d6230 f   trsd:TRSAPI.OBJ
 0001:000d5280       _trsDouble                 004d6280 f   trsd:TRSAPI.OBJ
 0001:000d52d0       _trsInt                    004d62d0 f   trsd:TRSAPI.OBJ
 0001:000d5430       _trs_FlushAll              004d6430 f   trsd:TRSAPI.OBJ
 0001:000d54a0       _putchar_Prot              004d64a0 f   trsd:TRSAPI.OBJ
 0001:000d54d0       _printf_Prot               004d64d0 f   trsd:TRSAPI.OBJ
 0001:000d5520       __putchar                  004d6520 f   trsd:TRSAPI.OBJ
 0001:000d5600       __printf                   004d6600 f   trsd:TRSAPI.OBJ
 0001:000d56f0       _trsWrite                  004d66f0 f   trsd:TRSAPI.OBJ
 0001:000d5880       __fprintf                  004d6880 f   trsd:TRSAPI.OBJ
 0001:000d5940       __gets                     004d6940 f   trsd:TRSAPI.OBJ
 0001:000d59e0       _trsResult                 004d69e0 f   trsd:TRSAPI.OBJ
 0001:000d5b60       _ParseFileAppKey           004d6b60 f   trsd:TRSAPI.OBJ
 0001:000d5ca0       _GetDstFromFile            004d6ca0 f   trsd:TRSAPI.OBJ
 0001:000d6370       _PutToFile                 004d7370 f   trsd:TRSAPI.OBJ
 0001:000d6690       _GetTime                   004d7690 f   trsd:TRSAPI.OBJ
 0001:000d66c0       _InitProcessorInfo         004d76c0 f   trsd:TRSAPI.OBJ
 0001:000d6880       _trs_arInit                004d7880 f   trsd:TRSREAD.OBJ
 0001:000d6900       _trs_arTerminate           004d7900 f   trsd:TRSREAD.OBJ
 0001:000d7d60       _trs_Read                  004d8d60 f   trsd:TRSREAD.OBJ
 0001:000d81d0       _CmdWithoutPrefix          004d91d0 f   trsd:TRSREAD.OBJ
 0001:000d8470       _trs_bRead                 004d9470 f   trsd:TRSREAD.OBJ
 0001:000d8650       _trsPause                  004d9650 f   trsd:TRSREAD.OBJ
 0001:000d8720       __trslRead                 004d9720 f   trsd:TRSREAD.OBJ
 0001:000d8750       __trswRead                 004d9750 f   trsd:TRSREAD.OBJ
 0001:000d8780       __trsiRead                 004d9780 f   trsd:TRSREAD.OBJ
 0001:000d87b0       __trssRead                 004d97b0 f   trsd:TRSREAD.OBJ
 0001:000d87e0       __trsdRead                 004d97e0 f   trsd:TRSREAD.OBJ
 0001:000d8810       __trstRead                 004d9810 f   trsd:TRSREAD.OBJ
 0001:000d8840       __trsCaseRead              004d9840 f   trsd:TRSREAD.OBJ
 0001:000d8870       __trsBitRead               004d9870 f   trsd:TRSREAD.OBJ
 0001:000d88a0       __trslbRead                004d98a0 f   trsd:TRSREAD.OBJ
 0001:000d88d0       __trswbRead                004d98d0 f   trsd:TRSREAD.OBJ
 0001:000d8900       __trsibRead                004d9900 f   trsd:TRSREAD.OBJ
 0001:000d8930       __trssbRead                004d9930 f   trsd:TRSREAD.OBJ
 0001:000d8960       __trsdbRead                004d9960 f   trsd:TRSREAD.OBJ
 0001:000d8990       _trsErrFuncName            004d9990 f   trsd:TRSERROR.OBJ
 0001:000d89b0       _trsErrorStr               004d99b0 f   trsd:TRSERROR.OBJ
 0001:000d8b50       _trsStdError               004d9b50 f   trsd:TRSERROR.OBJ
 0001:000d8d00       _trsError                  004d9d00 f   trsd:TRSERROR.OBJ
 0001:000d8d2c       _icvNextSeq                004d9d2c f   cvauxd:cvauxd.dll
 0001:000d8d32       _icvInitSeqTreeIterator    004d9d32 f   cvauxd:cvauxd.dll
 0001:000d8d38       _icvFindNearestPoint2D     004d9d38 f   cvauxd:cvauxd.dll
 0001:000d8d3e       _icvSubdiv2DCheck          004d9d3e f   cvauxd:cvauxd.dll
 0001:000d8d44       _icvSeqSort                004d9d44 f   cvauxd:cvauxd.dll
 0001:000d8d4a       _icvSeqInvert              004d9d4a f   cvauxd:cvauxd.dll
 0001:000d8d50       _icvSeqSlice               004d9d50 f   cvauxd:cvauxd.dll
 0001:000d8d56       _icvCopySeq                004d9d56 f   cvauxd:cvauxd.dll
 0001:000d8d5c       _icvSeqInsertSlice         004d9d5c f   cvauxd:cvauxd.dll
 0001:000d8d62       _icvSeqRemoveSlice         004d9d62 f   cvauxd:cvauxd.dll
 0001:000d8d68       _icvEndScanGraph           004d9d68 f   cvauxd:cvauxd.dll
 0001:000d8d6e       _icvNextGraphItem          004d9d6e f   cvauxd:cvauxd.dll
 0001:000d8d74       _icvStartScanGraph         004d9d74 f   cvauxd:cvauxd.dll
 0001:000d8d7a       _sin                       004d9d7a f   MSVCRTD:MSVCRTD.dll
 0001:000d8d80       _cos                       004d9d80 f   MSVCRTD:MSVCRTD.dll
 0001:000d8d90       __chkesp                   004d9d90 f   MSVCRTD:MSVCRTD.dll
 0001:000d8d96       _memcpy                    004d9d96 f   MSVCRTD:MSVCRTD.dll
 0001:000d8d9c       _sqrt                      004d9d9c f   MSVCRTD:MSVCRTD.dll
 0001:000d8da2       __assert                   004d9da2 f   MSVCRTD:MSVCRTD.dll
 0001:000d8da8       _rand                      004d9da8 f   MSVCRTD:MSVCRTD.dll
 0001:000d8dae       _srand                     004d9dae f   MSVCRTD:MSVCRTD.dll
 0001:000d8db4       _time                      004d9db4 f   MSVCRTD:MSVCRTD.dll
 0001:000d8dba       __ftol                     004d9dba f   MSVCRTD:MSVCRTD.dll
 0001:000d8dc0       _abs                       004d9dc0 f   MSVCRTD:MSVCRTD.dll
 0001:000d8dc6       _acos                      004d9dc6 f   MSVCRTD:MSVCRTD.dll
 0001:000d8dcc       _atan                      004d9dcc f   MSVCRTD:MSVCRTD.dll
 0001:000d8dd2       _cosh                      004d9dd2 f   MSVCRTD:MSVCRTD.dll
 0001:000d8dd8       _exp                       004d9dd8 f   MSVCRTD:MSVCRTD.dll
 0001:000d8dde       _floor                     004d9dde f   MSVCRTD:MSVCRTD.dll
 0001:000d8de4       _log                       004d9de4 f   MSVCRTD:MSVCRTD.dll
 0001:000d8dea       _pow                       004d9dea f   MSVCRTD:MSVCRTD.dll
 0001:000d8df0       ??3@YAXPAX@Z               004d9df0 f   MSVCRTD:MSVCRTD.dll
 0001:000d8df6       ??2@YAPAXI@Z               004d9df6 f   MSVCRTD:MSVCRTD.dll
 0001:000d8dfc       _fabs                      004d9dfc f   MSVCRTD:MSVCRTD.dll
 0001:000d8e02       _memset                    004d9e02 f   MSVCRTD:MSVCRTD.dll
 0001:000d8e08       _free                      004d9e08 f   MSVCRTD:MSVCRTD.dll
 0001:000d8e0e       _realloc                   004d9e0e f   MSVCRTD:MSVCRTD.dll
 0001:000d8e14       _putchar                   004d9e14 f   MSVCRTD:MSVCRTD.dll
 0001:000d8e1a       _malloc                    004d9e1a f   MSVCRTD:MSVCRTD.dll
 0001:000d8e20       _printf                    004d9e20 f   MSVCRTD:MSVCRTD.dll
 0001:000d8e30       __allmul                   004d9e30 f   MSVCRTD:llmul.obj
 0001:000d8e64       _atan2                     004d9e64 f   MSVCRTD:MSVCRTD.dll
 0001:000d8e70       __alloca_probe             004d9e70 f   MSVCRTD:chkstk.obj
 0001:000d8e70       __chkstk                   004d9e70 f   MSVCRTD:chkstk.obj
 0001:000d8ea0       _fclose                    004d9ea0 f   MSVCRTD:MSVCRTD.dll
 0001:000d8ea6       _strncpy                   004d9ea6 f   MSVCRTD:MSVCRTD.dll
 0001:000d8eac       _fseek                     004d9eac f   MSVCRTD:MSVCRTD.dll
 0001:000d8eb2       _fread                     004d9eb2 f   MSVCRTD:MSVCRTD.dll
 0001:000d8eb8       _fopen                     004d9eb8 f   MSVCRTD:MSVCRTD.dll
 0001:000d8ebe       _strcat                    004d9ebe f   MSVCRTD:MSVCRTD.dll
 0001:000d8ec4       _strcpy                    004d9ec4 f   MSVCRTD:MSVCRTD.dll
 0001:000d8eca       _strcmp                    004d9eca f   MSVCRTD:MSVCRTD.dll
 0001:000d8ed0       _strrchr                   004d9ed0 f   MSVCRTD:MSVCRTD.dll
 0001:000d8ed6       _sprintf                   004d9ed6 f   MSVCRTD:MSVCRTD.dll
 0001:000d8ee0       __allshl                   004d9ee0 f   MSVCRTD:llshl.obj
 0001:000d8f00       _memmove                   004d9f00 f   MSVCRTD:MSVCRTD.dll
 0001:000d8f06       _memcmp                    004d9f06 f   MSVCRTD:MSVCRTD.dll
 0001:000d8f0c       _fscanf                    004d9f0c f   MSVCRTD:MSVCRTD.dll
 0001:000d8f12       _strlen                    004d9f12 f   MSVCRTD:MSVCRTD.dll
 0001:000d8f18       _tan                       004d9f18 f   MSVCRTD:MSVCRTD.dll
 0001:000d8f1e       _fprintf                   004d9f1e f   MSVCRTD:MSVCRTD.dll
 0001:000d8f24       __fullpath                 004d9f24 f   MSVCRTD:MSVCRTD.dll
 0001:000d8f2a       ___CxxFrameHandler         004d9f2a f   MSVCRTD:MSVCRTD.dll
 0001:000d8f30       _mainCRTStartup            004d9f30 f   MSVCRTD:crtexe.obj
 0001:000d9080       __allshr                   004da080 f   MSVCRTD:llshr.obj
 0001:000d90a2       _sscanf                    004da0a2 f   MSVCRTD:MSVCRTD.dll
 0001:000d90a8       _strstr                    004da0a8 f   MSVCRTD:MSVCRTD.dll
 0001:000d90ae       _calloc                    004da0ae f   MSVCRTD:MSVCRTD.dll
 0001:000d90b4       _difftime                  004da0b4 f   MSVCRTD:MSVCRTD.dll
 0001:000d90ba       __stricmp                  004da0ba f   MSVCRTD:MSVCRTD.dll
 0001:000d90c0       _clock                     004da0c0 f   MSVCRTD:MSVCRTD.dll
 0001:000d90c6       _fgetc                     004da0c6 f   MSVCRTD:MSVCRTD.dll
 0001:000d90cc       _ctime                     004da0cc f   MSVCRTD:MSVCRTD.dll
 0001:000d90d2       _fflush                    004da0d2 f   MSVCRTD:MSVCRTD.dll
 0001:000d90d8       _fputc                     004da0d8 f   MSVCRTD:MSVCRTD.dll
 0001:000d90de       _vfprintf                  004da0de f   MSVCRTD:MSVCRTD.dll
 0001:000d90e4       _exit                      004da0e4 f   MSVCRTD:MSVCRTD.dll
 0001:000d90ea       _gets                      004da0ea f   MSVCRTD:MSVCRTD.dll
 0001:000d90f0       _vsprintf                  004da0f0 f   MSVCRTD:MSVCRTD.dll
 0001:000d90f6       _strncat                   004da0f6 f   MSVCRTD:MSVCRTD.dll
 0001:000d90fc       _strchr                    004da0fc f   MSVCRTD:MSVCRTD.dll
 0001:000d9102       _rename                    004da102 f   MSVCRTD:MSVCRTD.dll
 0001:000d9108       _remove                    004da108 f   MSVCRTD:MSVCRTD.dll
 0001:000d910e       __exit                     004da10e f   MSVCRTD:MSVCRTD.dll
 0001:000d9114       __XcptFilter               004da114 f   MSVCRTD:MSVCRTD.dll
 0001:000d911a       ___p___initenv             004da11a f   MSVCRTD:MSVCRTD.dll
 0001:000d9120       ___getmainargs             004da120 f   MSVCRTD:MSVCRTD.dll
 0001:000d9126       __initterm                 004da126 f   MSVCRTD:MSVCRTD.dll
 0001:000d9130       __setdefaultprecision      004da130 f   MSVCRTD:fp8.obj
 0001:000d9148       ___setusermatherr          004da148 f   MSVCRTD:MSVCRTD.dll
 0001:000d9150       __matherr                  004da150 f   MSVCRTD:merr.obj
 0001:000d9160       __setargv                  004da160 f   MSVCRTD:dllargv.obj
 0001:000d9166       ___p__commode              004da166 f   MSVCRTD:MSVCRTD.dll
 0001:000d916c       ___p__fmode                004da16c f   MSVCRTD:MSVCRTD.dll
 0001:000d9180       __onexit                   004da180 f   MSVCRTD:atonexit.obj
 0001:000d91c0       _atexit                    004da1c0 f   MSVCRTD:atonexit.obj
 0001:000d91d8       ___set_app_type            004da1d8 f   MSVCRTD:MSVCRTD.dll
 0001:000d91de       __except_handler3          004da1de f   MSVCRTD:MSVCRTD.dll
 0001:000d91e4       __controlfp                004da1e4 f   MSVCRTD:MSVCRTD.dll
 0001:000d91ea       ___dllonexit               004da1ea f   MSVCRTD:MSVCRTD.dll
 0001:000d91f0       _cvLoadPrimitives          004da1f0 f   cvd:CVd.dll
 0001:000d91f6       _GetProcessAffinityMask@12 004da1f6 f   kernel32:KERNEL32.dll
 0001:000d91fc       _GetCurrentProcess@0       004da1fc f   kernel32:KERNEL32.dll
 0001:000d9202       _CloseHandle@4             004da202 f   kernel32:KERNEL32.dll
 0001:000d9208       _GetEnvironmentVariableA@12 004da208 f   kernel32:KERNEL32.dll
 0001:000d920e       _CreateThread@24           004da20e f   kernel32:KERNEL32.dll
 0001:000d9214       _SetEvent@4                004da214 f   kernel32:KERNEL32.dll
 0001:000d921a       _CreateMutexA@12           004da21a f   kernel32:KERNEL32.dll
 0001:000d9220       _CreateEventA@16           004da220 f   kernel32:KERNEL32.dll
 0001:000d9226       _WaitForSingleObject@8     004da226 f   kernel32:KERNEL32.dll
 0001:000d922c       _GetCurrentThreadId@0      004da22c f   kernel32:KERNEL32.dll
 0001:000d9232       _ReleaseMutex@4            004da232 f   kernel32:KERNEL32.dll
 0001:000d9238       _GetStdHandle@4            004da238 f   kernel32:KERNEL32.dll
 0001:000d923e       _WriteConsoleA@20          004da23e f   kernel32:KERNEL32.dll
 0001:000d9244       _SetThreadPriority@8       004da244 f   kernel32:KERNEL32.dll
 0001:000d924a       _GetCurrentThread@0        004da24a f   kernel32:KERNEL32.dll
 0001:000d9250       _QueryPerformanceFrequency@4 004da250 f   kernel32:KERNEL32.dll
 0001:000d9256       _QueryPerformanceCounter@4 004da256 f   kernel32:KERNEL32.dll
 0001:000d925c       _GetVersionExA@4           004da25c f   kernel32:KERNEL32.dll
 0001:000d9262       _GetSystemInfo@4           004da262 f   kernel32:KERNEL32.dll
 0002:00000020       __real@8@00000000000000000000 004db020     aApproxPoly.obj
 0002:00000028       __real@8@4033c000000000000000 004db028     aApproxPoly.obj
 0002:00000030       __real@8@400dfffe000000000000 004db030     aContourCollection.obj
 0002:00000038       __real@8@3ffbccccccccccccd000 004db038     aContourCollection.obj
 0002:00000040       __real@8@3fff8000000000000000 004db040     aContourCollection.obj
 0002:00000048       __real@8@4000c000000000000000 004db048     aContourCollection.obj
 0002:00000050       __real@8@4007fa00000000000000 004db050     aContourCollection.obj
 0002:00000058       __real@8@4002d000000000000000 004db058     aContourMoments.obj
 0002:00000060       __real@8@3ffe8000000000000000 004db060     aContourMoments.obj
 0002:00000068       __real@8@4007b400000000000000 004db068     aContourMoments.obj
 0002:00000070       __real@8@40008000000000000000 004db070     aContourMoments.obj
 0002:00000078       __real@8@40018000000000000000 004db078     aContourMoments.obj
 0002:00000080       __real@8@3fcb8000000000000000 004db080     aContours.obj
 0002:0000008c       __real@4@3ff9a3d70a0000000000 004db08c     aDistanceTransform.obj
 0002:00000090       __real@4@3ffb8f5c290000000000 004db090     aDistanceTransform.obj
 0002:00000094       __real@4@3fff8000000000000000 004db094     aThresh.obj
 0002:00000098       __real@4@c0068000000000000000 004db098     aThresh.obj
 0002:0000009c       __real@4@00000000000000000000 004db09c     aThresh.obj
 0002:000000a0       __real@8@3ff8a3d70a3d70a3d800 004db0a0     aCamShift.obj
 0002:000000a8       __real@4@3fffc90fdb0000000000 004db0a8     aCamShift.obj
 0002:000000ac       __real@4@4000c90fdb0000000000 004db0ac     aCamShift.obj
 0002:000000b0       __real@8@3feea7c5ac471b478800 004db0b0     aEMD.obj
 0002:000000b8       __real@4@3ffe8000000000000000 004db0b8     aHistograms.obj
 0002:000000c0       __real@8@4000c90fdaa22168c000 004db0c0     uIplUtils.obj
 0002:000000c8       __real@8@4006b400000000000000 004db0c8     uIplUtils.obj
 0002:000000d0       __real@8@40138000000000000000 004db0d0     uIplUtils.obj
 0002:000000d8       __real@8@3ff98efa351294e9c800 004db0d8     uIplUtils.obj
 0002:000000e0       __real@8@c0008000000000000000 004db0e0     uIplUtils.obj
 0002:000000e8       __real@8@c3fefffffffffffff800 004db0e8     uIplUtils.obj
 0002:00000118       __real@8@3fdddbe6fecebdedd800 004db118     aImageStatistics.obj
 0002:00000120       __real@8@4062c9f2c9cd04675000 004db120     aImageStatistics.obj
 0002:00000168       __real@8@c002a000000000000000 004db168     aNorm.obj
 0002:00000170       __real@8@c001a000000000000000 004db170     aNorm.obj
 0002:00000178       __real@8@c0018000000000000000 004db178     aNorm.obj
 0002:00000180       __real@8@c000c000000000000000 004db180     aNorm.obj
 0002:00000188       __real@8@bfff8000000000000000 004db188     aNorm.obj
 0002:00000190       __real@8@3fffc000000000000000 004db190     aNorm.obj
 0002:00000198       __real@8@3fff9999999999999800 004db198     aNorm.obj
 0002:000001d8       __real@8@40078000000000000000 004db1d8     aNormMask.obj
 0002:000001e0       __real@8@3ff8a3d70a0000000000 004db1e0     aFitLines.obj
 0002:000001e8       __real@8@3fe88000000000000000 004db1e8     aSubdivisions.obj
 0002:000001f0       __real@4@3fe7d6bf950000000000 004db1f0     aEigenObjects.obj
 0002:000001f4       __real@4@c062c9f2ca0000000000 004db1f4     aEigenObjects.obj
 0002:000001f8       __real@4@c05fa18f080000000000 004db1f8     aEigenObjects.obj
 0002:000001fc       __real@4@4006ff7fbe0000000000 004db1fc     aEigenObjects.obj
 0002:00000200       __real@4@bffdffffde0000000000 004db200     aEigenObjects.obj
 0002:00000204       __real@4@3ffebcac080000000000 004db204     aEigenObjects.obj
 0002:00000208       __real@4@3ffe9c6a7f0000000000 004db208     aEigenObjects.obj
 0002:0000020c       __real@4@3ffc8624dd0000000000 004db20c     aEigenObjects.obj
 0002:00000210       __real@4@3ffca0c49c0000000000 004db210     aEigenObjects.obj
 0002:00000214       __real@4@4005c800000000000000 004db214     aEigenObjects.obj
 0002:00000218       __real@8@3fff8147ae147ae14800 004db218     aEigenObjects.obj
 0002:00000220       __real@8@3ff1d1b71758e2196800 004db220     aEigenObjects.obj
 0002:00000258       __real@4@4006c800000000000000 004db258     aConvert.obj
 0002:0000025c       __real@4@40008000000000000000 004db25c     aConvert.obj
 0002:00000260       __real@4@40018000000000000000 004db260     aConvert.obj
 0002:00000268       __real@8@3fcd901d7cf73ab0b000 004db268     aMathUtils.obj
 0002:00000270       __real@4@3fffc000000000000000 004db270     aMathUtils.obj
 0002:00000278       __real@4@3ffeb333330000000000 004db278     aSamplers.obj
 0002:00000280       __real@8@40068000000000000000 004db280     aSamplers.obj
 0002:00000290       __real@8@401db2d05e0000000000 004db290     aSequence.obj
 0002:00000298       __real@8@3ffee666666666666800 004db298     aDrawing.obj
 0002:000002a0       __real@8@4001a000000000000000 004db2a0     adrawing_regress.obj
 0002:000002a8       __real@8@4002a000000000000000 004db2a8     adrawing_regress.obj
 0002:000002b0       __real@4@4000c000000000000000 004db2b0     aMotionTemplates.obj
 0002:000002b4       __real@4@4007b400000000000000 004db2b4     aMotionTemplates.obj
 0002:000002b8       __real@8@4004e52ee10000000000 004db2b8     aMotionTemplates.obj
 0002:000002c0       __real@4@3ff1d1b7170000000000 004db2c0     aMotionTemplates.obj
 0002:000002c4       __real@4@3ffd99999a0000000000 004db2c4     aMotionTemplates.obj
 0002:000002c8       __real@8@c006b400000000000000 004db2c8     aMotionTemplates.obj
 0002:000002d0       __real@8@4006ff00000000000000 004db2d0     aMotionTemplates.obj
 0002:000002d8       __real@8@4006fe00000000000000 004db2d8     aMotionTemplates.obj
 0002:000002e0       __real@8@4002c000000000000000 004db2e0     aMotionTemplates.obj
 0002:000002e8       __real@4@4002c000000000000000 004db2e8     aMotionTemplates.obj
 0002:000002ec       __real@4@4005a000000000000000 004db2ec     aMotSeg.obj
 0002:000002f0       __real@8@3ff1d1b7170000000000 004db2f0     aOptFlowHS.obj
 0002:000002f8       __real@4@40028000000000000000 004db2f8     aOptFlowHS.obj
 0002:00000300       __real@8@3feea7c5ac0000000000 004db300     aOptFlowLK.obj
 0002:00000308       __real@8@40029000000000000000 004db308     aGestureRecognition.obj
 0002:00000310       __real@8@3ff483126e978d4fe000 004db310     aMatrix2.obj
 0002:00000318       __real@8@3ffeffbe76c8b4395800 004db318     aMatrix2.obj
 0002:00000320       __real@4@3ff8a3d70a0000000000 004db320     aCorner.obj
 0002:00000324       __real@4@4006ff00000000000000 004db324     aCorner.obj
 0002:0000032c       __real@4@3fe88000000000000000 004db32c     aarithm.obj
 0002:00000338       __real@8@bffaccccccccccccd000 004db338     aCondens.obj
 0002:00000340       __real@8@4005a200000000000000 004db340     ahistogram.obj
 0002:00000348       __real@4@3ffae38e390000000000 004db348     ahistogram.obj
 0002:0000034c       __real@4@3ffa97b4260000000000 004db34c     ahistogram.obj
 0002:00000350       __real@4@3ff997b4260000000000 004db350     ahistogram.obj
 0002:00000358       __real@8@400aa500000000000000 004db358     aoperations.obj
 0002:00000360       __real@8@4009b400000000000000 004db360     aoperations.obj
 0002:00000368       __real@8@40028000000000000000 004db368     aoperations.obj
 0002:00000370       __real@4@40029000000000000000 004db370     aoperations.obj
 0002:00000374       __real@4@4008ffc0000000000000 004db374     atree.obj
 0002:000003f0       ??_C@_0L@CIE@TRSFUN?4tmp?$AA@ 004db3f0     trsd:TRSAPI.OBJ
 0002:000003fc       ??_C@_0L@ILFA@TestSystem?$AA@ 004db3fc     trsd:TRSAPI.OBJ
 0002:00000408       ??_C@_06OOFE@Enter?5?$AA@  004db408     trsd:TRSAPI.OBJ
 0002:00000410       ??_C@_00A@?$AA@            004db410     trsd:TRSAPI.OBJ
 0002:00000414       ??_C@_0EA@KGFG@?$DL?$CBe?$DL?$CBq?$DL?$CBp?$DL?$CBr?$DL?$CBt?$DL?$DP?$DL?$DP?$DP?$DL?$DPh?$DL?$DPl?$DL?$DPL?$DL?$DM?$DL@ 004db414     trsd:TRSAPI.OBJ
 0002:00000454       ??_C@_0P@HLJK@trsGuardcAlloc?$AA@ 004db454     trsd:TRSAPI.OBJ
 0002:00000464       ??_C@_0L@ECKK@High?5guard?$AA@ 004db464     trsd:TRSAPI.OBJ
 0002:00000470       ??_C@_09FLCM@Low?5guard?$AA@ 004db470     trsd:TRSAPI.OBJ
 0002:0000047c       ??_C@_0O@BOHD@trsGuardCheck?$AA@ 004db47c     trsd:TRSAPI.OBJ
 0002:0000048c       ??_C@_0BA@BJKG@Base?$CIlow?$CJ?5guard?$AA@ 004db48c     trsd:TRSAPI.OBJ
 0002:0000049c       ??_C@_0N@IHL@trsGuardFree?$AA@ 004db49c     trsd:TRSAPI.OBJ
 0002:000004ac       ??_C@_0CA@BPIJ@Unable?5to?5free?5corrupted?5memory?$AA@ 004db4ac     trsd:TRSAPI.OBJ
 0002:000004cc       ??_C@_09OBOK@trsmAlloc?$AA@ 004db4cc     trsd:TRSAPI.OBJ
 0002:000004d8       ??_C@_0L@GMBG@trsreAlloc?$AA@ 004db4d8     trsd:TRSAPI.OBJ
 0002:000004e4       ??_C@_0O@LECL@trssbAllocate?$AA@ 004db4e4     trsd:TRSAPI.OBJ
 0002:000004f4       ??_C@_0CF@NHCD@c?3?2sdk?2opencv?2tests?2trs?2src?2trsa@ 004db4f4     trsd:TRSAPI.OBJ
 0002:0000051c       ??_C@_0O@OHEA@trsdbAllocate?$AA@ 004db51c     trsd:TRSAPI.OBJ
 0002:0000052c       ??_C@_0O@ILCC@trswbAllocate?$AA@ 004db52c     trsd:TRSAPI.OBJ
 0002:0000053c       ??_C@_0O@CJJJ@trsibAllocate?$AA@ 004db53c     trsd:TRSAPI.OBJ
 0002:0000054c       ??_C@_0O@JJFC@trslbAllocate?$AA@ 004db54c     trsd:TRSAPI.OBJ
 0002:0000055c       ??_C@_0BK@HKEB@No?5Memory?0?5StringDup?$CI?$CFs?$CJ?6?$AA@ 004db55c     trsd:TRSAPI.OBJ
 0002:00000578       ??_C@_0BM@JLDI@No?5Memory?0?5reStringDup?$CI?$CFs?$CJ?6?$AA@ 004db578     trsd:TRSAPI.OBJ
 0002:00000594       ??_C@_0CB@JPI@?$DPStringCat?9No?5Memory?5for?5?$CC?$CFs?$CFs?$CC?6@ 004db594     trsd:TRSAPI.OBJ
 0002:000005b8       ??_C@_0P@GHHG@?9End?5testing?4?6?$AA@ 004db5b8     trsd:TRSAPI.OBJ
 0002:000005c8       ??_C@_0CB@MMFK@?9Unknown?5test?5return?5status?3?5?$CFd?6@ 004db5c8     trsd:TRSAPI.OBJ
 0002:000005ec       ??_C@_0N@CKFH@?9Next?5test?4?6?$AA@ 004db5ec     trsd:TRSAPI.OBJ
 0002:000005fc       ??_C@_0BE@HELG@?9Cancel?5all?5tests?4?6?$AA@ 004db5fc     trsd:TRSAPI.OBJ
 0002:00000610       ??_C@_0O@JPON@?9Top?5of?5list?6?$AA@ 004db610     trsd:TRSAPI.OBJ
 0002:00000620       ??_C@_0BD@FNCE@?9Previous?5test?4?4?4?6?$AA@ 004db620     trsd:TRSAPI.OBJ
 0002:00000634       ??_C@_0BD@FPHO@?9Retrying?5test?4?4?4?6?$AA@ 004db634     trsd:TRSAPI.OBJ
 0002:00000648       ??_C@_04LHEF@?5?$CFc?6?$AA@ 004db648     trsd:TRSAPI.OBJ
 0002:00000650       ??_C@_04FBKG@?$CF?97d?$AA@ 004db650     trsd:TRSAPI.OBJ
 0002:00000658       ??_C@_07GMLA@?5?5?5FAIL?$AA@ 004db658     trsd:TRSAPI.OBJ
 0002:00000660       ??_C@_07PKOI@?5?5?5?5?5OK?$AA@ 004db660     trsd:TRSAPI.OBJ
 0002:00000668       ??_C@_07NDP@?5?5?5?5?5?5?5?$AA@ 004db668     trsd:TRSAPI.OBJ
 0002:00000670       ??_C@_01FCOA@?5?$AA@       004db670     trsd:TRSAPI.OBJ
 0002:00000674       ??_C@_05DPDD@?$CF?955s?$AA@ 004db674     trsd:TRSAPI.OBJ
 0002:0000067c       ??_C@_0BB@KCJF@?$CFc?$DMR?$DOesult?5?5?5?5?3?5?$AA@ 004db67c     trsd:TRSAPI.OBJ
 0002:00000690       ??_C@_0BJ@KFPE@?$CFc?$DMS?$DOource?5?5?5?5?3?5?$CF?963s?$CFc?6?$AA@ 004db690     trsd:TRSAPI.OBJ
 0002:000006ac       ??_C@_0CF@IKOG@?$CFc?$DMT?$DOest?5body?5?3?5?$CF?944s?5line?3?5?$CF?912@ 004db6ac     trsd:TRSAPI.OBJ
 0002:000006d4       ??_C@_06CPKF@?$CFs?5?$CFc?6?$AA@ 004db6d4     trsd:TRSAPI.OBJ
 0002:000006dc       ??_C@_0BL@FCNG@?$CFc?$DMc?$DOlass?5?5?5?5?5?3?5?$CF?943s?5?5?$CFs?1?$AA@ 004db6dc     trsd:TRSAPI.OBJ
 0002:000006f8       ??_C@_0BJ@CLCG@?$CFc?$DMc?$DOlass?5?5?5?5?5?3?5?$CF?963s?$CFc?6?$AA@ 004db6f8     trsd:TRSAPI.OBJ
 0002:00000714       ??_C@_0BJ@GGOC@?$CFc?$DMt?$DOest?5?5?5?5?5?5?3?5?$CF?963s?$CFc?6?$AA@ 004db714     trsd:TRSAPI.OBJ
 0002:00000730       ??_C@_0BJ@ELBK@?$CFc?$DMf?$DOunction?5?5?3?5?$CF?963s?$CFc?6?$AA@ 004db730     trsd:TRSAPI.OBJ
 0002:0000074c       ??_C@_03BNAH@?$CFc?6?$AA@  004db74c     trsd:TRSAPI.OBJ
 0002:00000750       ??_C@_0BF@PNEB@?$CFld?$CFld?3?$CFld?$CFld?3?$CFld?$CFld?$AA@ 004db750     trsd:TRSAPI.OBJ
 0002:00000768       ??_C@_02DILL@?$CFs?$AA@    004db768     trsd:TRSAPI.OBJ
 0002:0000076c       ??_C@_01BJG@?6?$AA@        004db76c     trsd:TRSAPI.OBJ
 0002:00000770       ??_C@_04OKK@FAIL?$AA@      004db770     trsd:TRSAPI.OBJ
 0002:00000778       ??_C@_02HAGF@OK?$AA@       004db778     trsd:TRSAPI.OBJ
 0002:0000077c       ??_C@_03HHKO@?$CFs?6?$AA@  004db77c     trsd:TRSAPI.OBJ
 0002:00000780       ??_C@_0L@JJK@?$DM?$CFc?$DO?3?$FL?$CFs?$FN?6?$AA@ 004db780     trsd:TRSAPI.OBJ
 0002:0000078c       ??_C@_04OBPJ@?4csv?$AA@    004db78c     trsd:TRSAPI.OBJ
 0002:00000794       ??_C@_04JKAD@?4lst?$AA@    004db794     trsd:TRSAPI.OBJ
 0002:0000079c       ??_C@_04OOLB@?4ini?$AA@    004db79c     trsd:TRSAPI.OBJ
 0002:000007a4       ??_C@_04LFBN@?4sum?$AA@    004db7a4     trsd:TRSAPI.OBJ
 0002:000007ac       ??_C@_0BK@NNMI@?$DPaBcdDfFghHilLmoqrRsStTxZ?$AA@ 004db7ac     trsd:TRSAPI.OBJ
 0002:000007c8       ??_C@_0BG@DOBH@?$DP?9?$CFs?9Invalid?5key?5?9?$CFc?6?$AA@ 004db7c8     trsd:TRSAPI.OBJ
 0002:000007e0       ??_C@_0BG@BLIF@?$DP?9?$CFs?9Invalid?5command?6?$AA@ 004db7e0     trsd:TRSAPI.OBJ
 0002:000007f8       ??_C@_05GOJD@?5?$FL?$CFs?$FN?$AA@ 004db7f8     trsd:TRSAPI.OBJ
 0002:00000800       ??_C@_01LLF@w?$AA@         004db800     trsd:TRSAPI.OBJ
 0002:00000804       ??_C@_02MHMJ@?$CFu?$AA@    004db804     trsd:TRSAPI.OBJ
 0002:00000808       ??_C@_0DP@BMDM@?9?9?5string?5?5?5?5?5?9?5any?5user?5defined@ 004db808     trsd:TRSAPI.OBJ
 0002:00000848       ??_C@_0DL@GGFH@?5?5?5test?5?9T?5trsbody?5?9?5run?5all?5tes@ 004db848     trsd:TRSAPI.OBJ
 0002:00000884       ??_C@_0CK@HNOO@?5?5?5test?5?9T?5?$DP?5?5?5?5?5?5?5?9?5show?5testbo@ 004db884     trsd:TRSAPI.OBJ
 0002:000008b0       ??_C@_0DL@GOMJ@?9T?5name?5?5?5?5?5?5?5?9?5testbody?0?5apply?5@ 004db8b0     trsd:TRSAPI.OBJ
 0002:000008ec       ??_C@_0DF@IABE@?5?5?5test?5?9t?5Test1?5?5?5?9?5run?5all?5tes@ 004db8ec     trsd:TRSAPI.OBJ
 0002:00000924       ??_C@_0CJ@BOFH@?5?5?5test?5?9t?5?$DP?5?5?5?5?5?5?5?9?5show?5testna@ 004db924     trsd:TRSAPI.OBJ
 0002:00000950       ??_C@_0EK@GEEN@?9t?5name?5?5?5?5?5?5?5?9?5testname?0?5apply?5@ 004db950     trsd:TRSAPI.OBJ
 0002:0000099c       ??_C@_0DL@HKLN@?5?5?5test?5?9S?5abcd?4c?5?5?9?5run?5all?5tes@ 004db99c     trsd:TRSAPI.OBJ
 0002:000009d8       ??_C@_0DF@FLNG@?5?5?5test?5?9S?5?$DP?5?5?9?5show?5all?5source?5@ 004db9d8     trsd:TRSAPI.OBJ
 0002:00000a10       ??_C@_0DO@DLIF@?9S?5name?5?5?5?5?5?5?5?9?5source?0?5apply?5co@ 004dba10     trsd:TRSAPI.OBJ
 0002:00000a50       ??_C@_0ED@GBEE@?9s?5name?5?5?5?5?5?5?5?9?5summary?5?$CITW_SUM?$CJ@ 004dba50     trsd:TRSAPI.OBJ
 0002:00000a94       ??_C@_0DP@DJDK@?5?5?5test?5?9r?52?5?5?9?5if?5test?5FAIL?5rep@ 004dba94     trsd:TRSAPI.OBJ
 0002:00000ad4       ??_C@_0EC@NEMM@?5?5?5test?5?9r?5?5?5?5?9?5force?5RERUN?5mode@ 004dbad4     trsd:TRSAPI.OBJ
 0002:00000b18       ??_C@_0BL@KBGO@?9r?5n?5?5?5?5?5?5?5?5?5?5?9?5RERUN?5Mode?$AA@ 004dbb18     trsd:TRSAPI.OBJ
 0002:00000b34       ??_C@_0EC@FINL@?9R?5result?5?5?5?5?5?9?5print?5to?5?4sum?5?$CI?9@ 004dbb34     trsd:TRSAPI.OBJ
 0002:00000b78       ??_C@_0DH@KNFE@?5?5?5?5?5?5?5?5?5?5?5?5?5?5?5?5more?5prompt?5?8?9?9M@ 004dbb78     trsd:TRSAPI.OBJ
 0002:00000bb0       ??_C@_0EC@KHCL@?9m?5n?5?5?5?5?5?5?5?5?5?5?9?5more?5mode?0?5n?5lin@ 004dbbb0     trsd:TRSAPI.OBJ
 0002:00000bf4       ??_C@_0DB@EMEI@?9L?5n?5?5?5?5?5?5?5?5?5?5?9?5loop?0?5repeat?5eac@ 004dbbf4     trsd:TRSAPI.OBJ
 0002:00000c28       ??_C@_0EG@FHLB@?9l?5name?5?5?5?5?5?5?5?9?5listing?$CITW_LST?$CJ?0@ 004dbc28     trsd:TRSAPI.OBJ
 0002:00000c70       ??_C@_0CK@HNGE@?9i?5name?5?5?5?5?5?5?5?9?5set?5current?5ini?5@ 004dbc70     trsd:TRSAPI.OBJ
 0002:00000c9c       ??_C@_0BK@CPHH@?9H?5?5?5?5?5?5?5?5?5?5?5?5?9?5full?5help?$AA@ 004dbc9c     trsd:TRSAPI.OBJ
 0002:00000cb8       ??_C@_0BL@KJBF@?9h?5?5?5?5?5?5?5?5?5?5?5?5?9?5short?5help?$AA@ 004dbcb8     trsd:TRSAPI.OBJ
 0002:00000cd4       ??_C@_0DK@MGDP@?5?5?5test?5?9f?5libsAdd?5?9?5run?5all?5tes@ 004dbcd4     trsd:TRSAPI.OBJ
 0002:00000d10       ??_C@_0CJ@KLDF@?5?5?5test?5?9f?5?$DP?5?5?5?5?5?5?5?9?5show?5functi@ 004dbd10     trsd:TRSAPI.OBJ
 0002:00000d3c       ??_C@_0DL@PIPG@?9f?5name?5?5?5?5?5?5?5?9?5apply?5command?5to@ 004dbd3c     trsd:TRSAPI.OBJ
 0002:00000d78       ??_C@_0EA@ICGG@?5?5?5?9D?5?$CC?$CK?$DMa?4ini?$FLlib?$FN?$CC?5?9?5?$DPRead?5fro@ 004dbd78     trsd:TRSAPI.OBJ
 0002:00000db8       ??_C@_0EP@HEC@?5?5?5?9D?5?$CC?$CK?$DM?$FL?4p5?$FN?$CC?5?5?5?5?5?5?9?5?$DPRead?5fro@ 004dbdb8     trsd:TRSAPI.OBJ
 0002:00000e08       ??_C@_0EI@NCOH@?5?5?5?9D?5?$CC?$CK?$DM?$FL?$FN?$CC?5?5?5?5?5?5?5?5?5?9?5?$DPRead?5fro@ 004dbe08     trsd:TRSAPI.OBJ
 0002:00000e50       ??_C@_0EI@KBFP@?5?5?5?9D?5?$CC?$CK?$DM?$CC?5?5?5?5?5?5?5?5?5?5?5?9?5?$DPRead?5fro@ 004dbe50     trsd:TRSAPI.OBJ
 0002:00000e98       ??_C@_0DJ@PDAG@?5?5?5?9D?5?$CC?$DPh?$DL?$DPl?$DL?$CBe?$CC?5?5?5?5?5?9?5print?5tes@ 004dbe98     trsd:TRSAPI.OBJ
 0002:00000ed4       ??_C@_0BN@LLDB@?5?5?5?9D?5?$CCa?$DN1?$DLb?$DN4?43?$DLc?$DNabcd?4ext?$CC?$AA@ 004dbed4     trsd:TRSAPI.OBJ
 0002:00000ef4       ??_C@_0DA@BNFE@?9D?5string?5?5?5?5?5?9?5define?5symbols?5t@ 004dbef4     trsd:TRSAPI.OBJ
 0002:00000f24       ??_C@_0DM@FCOG@?9d?5?5?5?5?5?5?5?5?5?5?5?5?9?5DEBUG?5mode?0?5acti@ 004dbf24     trsd:TRSAPI.OBJ
 0002:00000f60       ??_C@_0DK@DCAF@?9C?5name?5?5?5?5?5?5?5?9?5name?5of?5?4csv?5fil@ 004dbf60     trsd:TRSAPI.OBJ
 0002:00000f9c       ??_C@_0DM@GPFI@?5?5?5test?5?9c?5Algorithm?5?9?5run?5all?5t@ 004dbf9c     trsd:TRSAPI.OBJ
 0002:00000fd8       ??_C@_0DB@OHK@?5?5?5test?5?9c?5?$DP?5?5?5?5?5?5?5?5?5?9?5list?5all?5@ 004dbfd8     trsd:TRSAPI.OBJ
 0002:0000100c       ??_C@_0DO@ONCH@?9c?5name?5?5?5?5?5?5?5?9?5class?0?5apply?5com@ 004dc00c     trsd:TRSAPI.OBJ
 0002:0000104c       ??_C@_0DP@NJAP@?5?5?5?9B?$CC?$CBe?$CC?5?9D?$CC?$CK?$DM?$CC?5?5?5?5?5?5?5?9?5data?5fr@ 004dc04c     trsd:TRSAPI.OBJ
 0002:0000108c       ??_C@_0ED@CMJA@?5?5?5?9B?5?5?5?5?5?9D?$CC?$CK?$DM?$CC?5?5?5?5?5?5?5?9?5data?5fr@ 004dc08c     trsd:TRSAPI.OBJ
 0002:000010d0       ??_C@_0ED@EHJ@?5?5?5?9B?$CC?$DL?$DO?$FLlib?$FN?$CC?5?5?5?5?5?5?5?5?5?9?5accept?5@ 004dc0d0     trsd:TRSAPI.OBJ
 0002:00001114       ??_C@_0EE@MELG@?5?5?5?9B?$CC?$DL?$DO?$FL?4i486?$FN?$DL?$DO?$FL?4p5?$FN?$CC?9?5accept?5@ 004dc114     trsd:TRSAPI.OBJ
 0002:00001158       ??_C@_0EG@PBCL@?5?5?5?9B?$CC?$DL?$DO?$CC?5?5?5?5?5?5?5?5?5?5?5?5?5?5?9?5accept?5@ 004dc158     trsd:TRSAPI.OBJ
 0002:000011a0       ??_C@_0DI@KNFD@?5?5?5?9B?5?5?5?5?5?5?5?5?5?5?5?5?5?5?5?5?5?5?9?5accept?5@ 004dc1a0     trsd:TRSAPI.OBJ
 0002:000011d8       ??_C@_0EG@OALC@?9B?5string?5?5?5?5?5?9?5batch?5mode?0?5subs@ 004dc1d8     trsd:TRSAPI.OBJ
 0002:00001220       ??_C@_01PJCK@?4?$AA@       004dc220     trsd:TRSAPI.OBJ
 0002:00001228       __real@8@4005c800000000000000 004dc228     trsd:TRSAPI.OBJ
 0002:00001230       __real@8@400f8000000000000000 004dc230     trsd:TRSAPI.OBJ
 0002:00001238       __real@8@4012f424000000000000 004dc238     trsd:TRSAPI.OBJ
 0002:00001240       ??_C@_0M@IGKB@?5?5cmd?$DN?$FL?$CFs?$FN?6?$AA@ 004dc240     trsd:TRSAPI.OBJ
 0002:0000124c       ??_C@_0BC@NDAN@?5?5default?5?$DN?5NONE?6?$AA@ 004dc24c     trsd:TRSAPI.OBJ
 0002:00001260       ??_C@_0BC@FJKA@?5?5default?5?$DN?5?$FL?$CFs?$FN?6?$AA@ 004dc260     trsd:TRSAPI.OBJ
 0002:00001274       ??_C@_0L@HNOK@?5?5?$CFs?5?9?5?$CFs?6?$AA@ 004dc274     trsd:TRSAPI.OBJ
 0002:00001280       ??_C@_04PIGB@?$CF3d?5?$AA@ 004dc280     trsd:TRSAPI.OBJ
 0002:00001288       ??_C@_0BC@MALB@File?5?$CFs?5not?5found?$AA@ 004dc288     trsd:TRSAPI.OBJ
 0002:0000129c       ??_C@_01LHO@r?$AA@         004dc29c     trsd:TRSAPI.OBJ
 0002:000012a0       ??_C@_0O@EIMM@?$CFs?$CFs?$DN?$CI?$CF?$CL?48e?$CJ?6?$AA@ 004dc2a0     trsd:TRSAPI.OBJ
 0002:000012b0       ??_C@_0P@PODJ@?$CFs?$CFs?$DN?$CI?$CF?$CL?417e?$CJ?6?$AA@ 004dc2b0     trsd:TRSAPI.OBJ
 0002:000012c0       ??_C@_0BC@JCLM@?$CFs?$CFs?$FL?$CFd?$FN?$DN?$CI?$CF?$CL?48e?$CJ?6?$AA@ 004dc2c0     trsd:TRSAPI.OBJ
 0002:000012d4       ??_C@_0BD@MAOD@?$CFs?$CFs?$FL?$CFd?$FN?$DN?$CI?$CF?$CL?417e?$CJ?6?$AA@ 004dc2d4     trsd:TRSAPI.OBJ
 0002:000012e8       ??_C@_0EF@FNLN@?5?5Flavour?0Function?0Value?0Units?0C@ 004dc2e8     trsd:TRSAPI.OBJ
 0002:00001330       ??_C@_0M@KIDI@Data_begin?6?$AA@ 004dc330     trsd:TRSAPI.OBJ
 0002:0000133c       ??_C@_0M@INDP@Header_end?6?$AA@ 004dc33c     trsd:TRSAPI.OBJ
 0002:00001348       ??_C@_0BA@KJJE@?5?5Start_Time?0?$CFs?$AA@ 004dc348     trsd:TRSAPI.OBJ
 0002:00001358       ??_C@_0P@CPMM@?5?5Start_Date?0?6?$AA@ 004dc358     trsd:TRSAPI.OBJ
 0002:00001368       ??_C@_0BI@GNJN@?5v?$CF1ld?4?$CF1ld?5build?5?$CF1ld?6?$AA@ 004dc368     trsd:TRSAPI.OBJ
 0002:00001380       ??_C@_02OHFO@95?$AA@       004dc380     trsd:TRSAPI.OBJ
 0002:00001384       ??_C@_02MOOC@NT?$AA@       004dc384     trsd:TRSAPI.OBJ
 0002:00001388       ??_C@_0P@OKPN@32s?5on?5Windows?$AA@ 004dc388     trsd:TRSAPI.OBJ
 0002:00001398       ??_C@_0N@KDJA@?5?5OS?0Windows?$AA@ 004dc398     trsd:TRSAPI.OBJ
 0002:000013a8       ??_C@_06JCKP@Other?6?$AA@  004dc3a8     trsd:TRSAPI.OBJ
 0002:000013b0       ??_C@_08GDMI@Pentium?6?$AA@ 004dc3b0     trsd:TRSAPI.OBJ
 0002:000013bc       ??_C@_05PMEC@i486?6?$AA@   004dc3bc     trsd:TRSAPI.OBJ
 0002:000013c4       ??_C@_05GPM@i386?6?$AA@    004dc3c4     trsd:TRSAPI.OBJ
 0002:000013cc       ??_C@_0N@GBPG@?5?5Processor?0?$AA@ 004dc3cc     trsd:TRSAPI.OBJ
 0002:000013dc       ??_C@_0O@HIEM@Header_begin?6?$AA@ 004dc3dc     trsd:TRSAPI.OBJ
 0002:000013ec       ??_C@_0BO@JGMJ@?5?5?$CFs?0?$CFs?0?$CFs?0?$CFs?0?$CFs?0?$CFs?0?$CFs?0?$CFs?0?$CFs?6?$AA@ 004dc3ec     trsd:TRSAPI.OBJ
 0002:0000140c       ??_C@_02PILH@us?$AA@       004dc40c     trsd:TRSAPI.OBJ
 0002:00001410       ??_C@_0CB@LNHN@?5?5?$CFs?0?$CFs?0?$CFs?0?$CFs?0?$CFs?0?$CFs?0?$CFs?0?$CFs?0?$CFs?0?$CFs?6@ 004dc410     trsd:TRSAPI.OBJ
 0002:00001434       ??_C@_0CE@DNPA@?5?5?$CFs?0?$CFs?0?$CFs?0?$CFs?0?$CFs?0?$CFs?0?$CFs?0?$CFs?0?$CFs?0?$CFs?0@ 004dc434     trsd:TRSAPI.OBJ
 0002:00001458       ??_C@_02GOLJ@?$CFe?$AA@    004dc458     trsd:TRSAPI.OBJ
 0002:0000145c       ??_C@_03MPEG@?$CFhd?$AA@   004dc45c     trsd:TRSAPI.OBJ
 0002:00001460       ??_C@_03JFOM@?$CFld?$AA@   004dc460     trsd:TRSAPI.OBJ
 0002:00001464       ??_C@_0M@NKOP@Footer_end?6?$AA@ 004dc464     trsd:TRSAPI.OBJ
 0002:00001470       ??_C@_0BF@BDBJ@?5?5Elapsed_Time?0?$CF?41f?6?$AA@ 004dc470     trsd:TRSAPI.OBJ
 0002:00001488       ??_C@_0O@BFMH@?5?5End_Time?0?$CFs?$AA@ 004dc488     trsd:TRSAPI.OBJ
 0002:00001498       ??_C@_0N@HMEA@?5?5End_Date?0?6?$AA@ 004dc498     trsd:TRSAPI.OBJ
 0002:000014a8       ??_C@_0O@HHLE@Footer_begin?6?$AA@ 004dc4a8     trsd:TRSAPI.OBJ
 0002:000014b8       ??_C@_09LHF@Data_end?6?$AA@ 004dc4b8     trsd:TRSAPI.OBJ
 0002:000014c4       ??_C@_02DHDP@?$CBq?$AA@    004dc4c4     trsd:TRSAPI.OBJ
 0002:000014c8       ??_C@_09NHIC@?9?9More?9?9?5?$AA@ 004dc4c8     trsd:TRSAPI.OBJ
 0002:000014d4       ??_C@_02FCOO@?1?1?$AA@     004dc4d4     trsd:TRSAPI.OBJ
 0002:000014d8       ??_C@_01KPOD@?$DN?$AA@     004dc4d8     trsd:TRSAPI.OBJ
 0002:000014dc       ??_C@_01KHLB@?$FL?$AA@     004dc4dc     trsd:TRSAPI.OBJ
 0002:000014e0       ??_C@_02MMAH@rt?$AA@       004dc4e0     trsd:TRSAPI.OBJ
 0002:000014e4       ??_C@_07FPMI@?6?$FL?$CFs?$FN?6?6?$AA@ 004dc4e4     trsd:TRSAPI.OBJ
 0002:000014ec       ??_C@_02IAAH@wt?$AA@       004dc4ec     trsd:TRSAPI.OBJ
 0002:000014f0       __real@8@3feb8637bd05af6c6800 004dc4f0     trsd:TRSAPI.OBJ
 0002:000014f8       __real@8@4008fa00000000000000 004dc4f8     trsd:TRSAPI.OBJ
 0002:00001500       ??_C@_06KHJJ@bCPUID?$AA@   004dc500     trsd:TRSAPI.OBJ
 0002:00001508       ??_C@_0N@LHPL@Set?5bits?5of?5?$AA@ 004dc508     trsd:TRSREAD.OBJ
 0002:00001518       ??_C@_07MOGN@Select?5?$AA@ 004dc518     trsd:TRSREAD.OBJ
 0002:00001520       ??_C@_04LHJL@text?$AA@     004dc520     trsd:TRSREAD.OBJ
 0002:00001528       ??_C@_04LHCN@long?$AA@     004dc528     trsd:TRSREAD.OBJ
 0002:00001530       ??_C@_05OPNM@ICplx?$AA@    004dc530     trsd:TRSREAD.OBJ
 0002:00001538       ??_C@_03EMIM@int?$AA@      004dc538     trsd:TRSREAD.OBJ
 0002:0000153c       ??_C@_05CMHM@WCplx?$AA@    004dc53c     trsd:TRSREAD.OBJ
 0002:00001544       ??_C@_05BODP@short?$AA@    004dc544     trsd:TRSREAD.OBJ
 0002:0000154c       ??_C@_05MOEG@DCplx?$AA@    004dc54c     trsd:TRSREAD.OBJ
 0002:00001554       ??_C@_06PJOP@double?$AA@   004dc554     trsd:TRSREAD.OBJ
 0002:0000155c       ??_C@_05KMOJ@SCplx?$AA@    004dc55c     trsd:TRSREAD.OBJ
 0002:00001564       ??_C@_05PIME@float?$AA@    004dc564     trsd:TRSREAD.OBJ
 0002:0000156c       ??_C@_0BG@BNFL@ParseInput?3?5No?5memory?$AA@ 004dc56c     trsd:TRSREAD.OBJ
 0002:00001584       ??_C@_01FAJB@?$DL?$AA@     004dc584     trsd:TRSREAD.OBJ
 0002:00001588       ??_C@_0CG@KABK@c?3?2sdk?2opencv?2tests?2trs?2src?2trsr@ 004dc588     trsd:TRSREAD.OBJ
 0002:000015b0       ??_C@_0L@HIFD@?$DP?9f?9TRS?9?$CFs?$AA@ 004dc5b0     trsd:TRSREAD.OBJ
 0002:000015bc       ??_C@_0M@IACJ@AssignValue?$AA@ 004dc5bc     trsd:TRSREAD.OBJ
 0002:000015c8       ??_C@_0BH@MEEB@No?5space?5for?5new?5value?$AA@ 004dc5c8     trsd:TRSREAD.OBJ
 0002:000015e0       ??_C@_0BF@ONMJ@Read?3?5Illegal?5format?$AA@ 004dc5e0     trsd:TRSREAD.OBJ
 0002:000015f8       ??_C@_03MAMC@?$CFlf?$AA@   004dc5f8     trsd:TRSREAD.OBJ
 0002:000015fc       ??_C@_02JBAA@?$CFf?$AA@    004dc5fc     trsd:TRSREAD.OBJ
 0002:00001600       ??_C@_0M@NBCE@?$DP?9w?9TRS?9?$CFs?6?$AA@ 004dc600     trsd:TRSREAD.OBJ
 0002:0000160c       ??_C@_0BH@HFOF@Read?3?5Source?5undefined?$AA@ 004dc60c     trsd:TRSREAD.OBJ
 0002:00001624       ??_C@_0CF@IIBE@Read?3?5Incompatible?5src?5and?5dst?5t@ 004dc624     trsd:TRSREAD.OBJ
 0002:0000164c       ??_C@_0BH@BEHE@Read?5from?5file?3?5?$CFs?$DN?$CFs?6?$AA@ 004dc64c     trsd:TRSREAD.OBJ
 0002:00001664       ??_C@_01FHE@?$DM?$AA@      004dc664     trsd:TRSREAD.OBJ
 0002:00001668       ??_C@_0BC@CDBN@From?5file?3?5?$CFs?$DN?$CFs?6?$AA@ 004dc668     trsd:TRSREAD.OBJ
 0002:0000167c       ??_C@_03GNGF@?5?$DO?5?$AA@ 004dc67c     trsd:TRSREAD.OBJ
 0002:00001680       ??_C@_03GCNL@?$DP?$DO?5?$AA@ 004dc680     trsd:TRSREAD.OBJ
 0002:00001684       ??_C@_06CBBG@?0?5?$FL?$CFs?$FN?$AA@ 004dc684     trsd:TRSREAD.OBJ
 0002:0000168c       ??_C@_08HHGK@?$CFs?$CFs?0?5?$CFs?$AA@ 004dc68c     trsd:TRSREAD.OBJ
 0002:00001698       ??_C@_07MMOM@?$CG?$CFs?$FL?$CFd?$FN?$AA@ 004dc698     trsd:TRSREAD.OBJ
 0002:000016a0       ??_C@_05PFIH@Pause?$AA@    004dc6a0     trsd:TRSREAD.OBJ
 0002:000016a8       ??_C@_0BD@CFKK@Unknown?5?$CFs?5code?5?$CFd?$AA@ 004dc6a8     trsd:TRSERROR.OBJ
 0002:000016bc       ??_C@_05COLM@error?$AA@    004dc6bc     trsd:TRSERROR.OBJ
 0002:000016c4       ??_C@_06DKLM@status?$AA@   004dc6c4     trsd:TRSERROR.OBJ
 0002:000016cc       ??_C@_0BB@BLGF@Corrupted?5memory?$AA@ 004dc6cc     trsd:TRSERROR.OBJ
 0002:000016e0       ??_C@_0BN@IBBC@Key?5value?5has?5illegal?5format?$AA@ 004dc6e0     trsd:TRSERROR.OBJ
 0002:00001700       ??_C@_0BJ@IIPH@No?5section?5?$FL?4?4?4?$FN?5in?5file?$AA@ 004dc700     trsd:TRSERROR.OBJ
 0002:0000171c       ??_C@_0BL@IICG@No?5keyname?5in?5section?5key?$DN?$AA@ 004dc71c     trsd:TRSERROR.OBJ
 0002:00001738       ??_C@_0BG@KEDB@Unable?5to?5create?5file?$AA@ 004dc738     trsd:TRSERROR.OBJ
 0002:00001750       ??_C@_0N@NNJH@No?5such?5file?$AA@ 004dc750     trsd:TRSERROR.OBJ
 0002:00001760       ??_C@_0N@GABD@Syntax?5error?$AA@ 004dc760     trsd:TRSERROR.OBJ
 0002:00001770       ??_C@_0P@CJCD@Autotrace?5call?$AA@ 004dc770     trsd:TRSERROR.OBJ
 0002:00001780       ??_C@_0BF@LBGP@Unsupported?5function?$AA@ 004dc780     trsd:TRSERROR.OBJ
 0002:00001798       ??_C@_0N@KJIK@Bad?5argument?$AA@ 004dc798     trsd:TRSERROR.OBJ
 0002:000017a8       ??_C@_0O@MNOP@Out?5of?5memory?$AA@ 004dc7a8     trsd:TRSERROR.OBJ
 0002:000017b8       ??_C@_0P@HKEP@Internal?5error?$AA@ 004dc7b8     trsd:TRSERROR.OBJ
 0002:000017c8       ??_C@_0O@NOFB@Unknown?5error?$AA@ 004dc7c8     trsd:TRSERROR.OBJ
 0002:000017d8       ??_C@_09NDLK@Backtrace?$AA@ 004dc7d8     trsd:TRSERROR.OBJ
 0002:000017e4       ??_C@_08KOLN@No?5Error?$AA@ 004dc7e4     trsd:TRSERROR.OBJ
 0002:000017f0       ??_C@_0CI@HKHE@TRS?5System?3?6terminating?5the?5appl@ 004dc7f0     trsd:TRSERROR.OBJ
 0002:00001818       ??_C@_04FKCF@?$CI?$CFs?$CJ?$AA@ 004dc818     trsd:TRSERROR.OBJ
 0002:00001820       ??_C@_04OFDJ@?3?5?$CFs?$AA@ 004dc820     trsd:TRSERROR.OBJ
 0002:00001828       ??_C@_03GPJM@?3?$CFs?$AA@  004dc828     trsd:TRSERROR.OBJ
 0002:0000182c       ??_C@_08GMED@?5?$FL?$CFs?3?$CFd?$FN?$AA@ 004dc82c     trsd:TRSERROR.OBJ
 0002:00001838       ??_C@_03HKGO@?5?$CFs?$AA@  004dc838     trsd:TRSERROR.OBJ
 0002:0000183c       ??_C@_09OOJM@?$DMunknown?$DO?$AA@ 004dc83c     trsd:TRSERROR.OBJ
 0002:00001848       ??_C@_0BB@OKIN@TRS?5Error?3?5?$CFs?5in?$AA@ 004dc848     trsd:TRSERROR.OBJ
 0002:0000185c       ??_C@_0N@OBGH@?7called?5from?$AA@ 004dc85c     trsd:TRSERROR.OBJ
 0003:00000000       ___xc_a                    004de000     MSVCRTD:cinitexe.obj
 0003:00000008       ___xc_z                    004de008     MSVCRTD:cinitexe.obj
 0003:0000000c       ___xi_a                    004de00c     MSVCRTD:cinitexe.obj
 0003:00000010       ___xi_z                    004de010     MSVCRTD:cinitexe.obj
 0003:000002a8       ?Contours@@3PAP6APAUCvSeq@@PAUCvMemStorage@@@ZA 004de2a8     aContourCollection.obj
 0003:0001376c       ??_C@_0CH@BP@?$CIunsigned?$CJCV_ARR_DEPTH?$CItype?$CJ?5?$DM?$DN?5@ 004f176c     aMatrix.obj
 0003:00013794       ??_C@_0BO@ONHH@?4?4?2?4?4?2?4?4?2CV?2include?2cvtypes?4h?$AA@ 004f1794     aMatrix.obj
 0003:000137b4       ??_C@_0BB@HCEK@type?5?$DN?$DN?5CV_64FC1?$AA@ 004f17b4     aMatrix.obj
 0003:000137c8       ??_C@_0EL@CKHP@?$CIunsigned?$CJi?5?$DM?5?$CIunsigned?$CJ?$CImat?9?$DOro@ 004f17c8     aMatrix.obj
 0003:0001761c       ??_C@_0CL@EIPO@roi?4width?5?$CK?5?$CIint?$CJsizeof?$CI?5SrcType@ 004f561c     abackproject.obj
 0003:00017648       ??_C@_0CC@HMMP@?4?4?2?4?4?2?4?4?2CV?2include?2cvstorage?4hp@ 004f5648     abackproject.obj
 0003:0001766c       ??_C@_0CP@MFKI@roi?4width?5?$CK?5?$CIint?$CJsizeof?$CI?5DstType@ 004f566c     abackproject.obj
 0003:0001769c       ??_C@_0CP@IOED@roi?4width?5?$CK?5?$CIint?$CJsizeof?$CI?5SrcType@ 004f569c     abackproject.obj
 0003:000176cc       ??_C@_01PLJA@0?$AA@        004f56cc     abackproject.obj
 0003:000176d0       ??_C@_0BI@HPOI@size?5?$DN?$DN?50?5?$HM?$HM?5idx?5?$DM?5size?$AA@ 004f56d0     abackproject.obj
 0003:000176e8       ??_C@_0BL@KECO@?4?4?2?4?4?2?4?4?2CV?2include?2cv?4hpp?$AA@ 004f56e8     abackproject.obj
 0003:00018574       ??_C@_09GNKM@node?5?$CB?$DN?50?$AA@ 004f6574     ahistogram.obj
 0003:00019f90       ??_C@_0EO@MANA@?$CB?$CI?$CInodeA?9?$DOlink?$FLnode_type?3?3left?$FN?5@ 004f7f90     atree.obj
 0003:00019fe0       ??_C@_0CD@KOMN@nodeA?9?$DOlink?$FLnode_type?3?3right?$FN?5?$CB?$DN@ 004f7fe0     atree.obj
 0003:0001a004       ??_C@_0CC@MPPK@nodeA?9?$DOlink?$FLnode_type?3?3left?$FN?5?$CB?$DN?5@ 004f8004     atree.obj
 0003:0001a534       ___?MKL@LIB?_ftrans        004f8534     mkl_c:auxi.obj
 0003:0001a544       ___?MKL@LIB?_ftrans_r      004f8544     mkl_c:auxi.obj
 0003:0001a554       ___?MKL@LIB?_ftrans_c      004f8554     mkl_c:auxi.obj
 0003:0001a564       ___?MKL@LIB?_fside         004f8564     mkl_c:auxi.obj
 0003:0001a56c       ___?MKL@LIB?_fdiag         004f856c     mkl_c:auxi.obj
 0003:0001a574       ___?MKL@LIB?_fuplo         004f8574     mkl_c:auxi.obj
 0003:0001a5d0       ___?MKL@LIB?_smp_sysnproc  004f85d0     mkl_c:smpserv.obj
 0003:0001a64c       _atsTimingClass            004f864c     atsd:Common.obj
 0003:0001a650       _atsAlgoClass              004f8650     atsd:Common.obj
 0003:0001abc0       _Trs_ReadSource            004f8bc0     trsd:TRSAPI.OBJ
 0003:0001abf8       ?__LINE__Var@?1??trssbAllocate@@9@9 004f8bf8     trsd:TRSAPI.OBJ
 0003:0001abfc       ?__LINE__Var@?1??trsdbAllocate@@9@9 004f8bfc     trsd:TRSAPI.OBJ
 0003:0001ac00       ?__LINE__Var@?1??trswbAllocate@@9@9 004f8c00     trsd:TRSAPI.OBJ
 0003:0001ac04       ?__LINE__Var@?1??trsibAllocate@@9@9 004f8c04     trsd:TRSAPI.OBJ
 0003:0001ac08       ?__LINE__Var@?1??trslbAllocate@@9@9 004f8c08     trsd:TRSAPI.OBJ
 0003:0001ac0c       ?__LINE__Var@?1??StringDup@@9@9 004f8c0c     trsd:TRSAPI.OBJ
 0003:0001ac10       ?__LINE__Var@?1??trsInit@@9@9@d9cf8ea7 004f8c10     trsd:TRSAPI.OBJ
 0003:0001ac14       ?__LINE__Var@?1??trsComment@@9@9@d9cf8ea7 004f8c14     trsd:TRSAPI.OBJ
 0003:0001ac18       ?__LINE__Var@?1??LoadAppList@@9@9@d9cf8ea7 004f8c18     trsd:TRSAPI.OBJ
 0003:0001ac1c       ?__LINE__Var@?1??NewApp@@9@9@d9cf8ea7 004f8c1c     trsd:TRSAPI.OBJ
 0003:0001ac20       ?__LINE__Var@?1??NewKey@@9@9@d9cf8ea7 004f8c20     trsd:TRSAPI.OBJ
 0003:0001ac24       ?__LINE__Var@?1??InitProcessorInfo@@9@9 004f8c24     trsd:TRSAPI.OBJ
 0003:0001ac88       ?__LINE__Var@?1??ParseTokens@@9@9@da5bf2db 004f8c88     trsd:TRSREAD.OBJ
 0003:0001ac8c       ?__LINE__Var@?1??AssignValue@@9@9@da5bf2db 004f8c8c     trsd:TRSREAD.OBJ
 0003:0001ac90       ?__LINE__Var@?1??AddInpValueList@@9@9@da5bf2db 004f8c90     trsd:TRSREAD.OBJ
 0003:0001ac94       ?__LINE__Var@?1??AddInputListEntry@@9@9@da5bf2db 004f8c94     trsd:TRSREAD.OBJ
 0003:0001ac98       _TstStdErrMode             004f8c98     trsd:TRSERROR.OBJ
 0003:0001aca0       ___defaultmatherr          004f8ca0     MSVCRTD:merr.obj
 0003:0001ae8c       ?Counter@@3HA              004f8e8c     aFloodFill.obj
 0003:0001aea0       ?Counter8@@3HA             004f8ea0     aFloodFill8.obj
 0003:0001b13c       ?data_path@@3PADA          004f913c     aGestureRecognition.obj
 0003:0001b7d0       __1__SGTRBTP_LOCALSTATIC_ZERO 004f97d0     mkl_c:sgtrbtp.obj
 0003:0001b7e0       __1__SGTRBNP_LOCALSTATIC_ZERO 004f97e0     mkl_c:sgtrbnp.obj
 0003:0001b7f0       _atsCPUFreq                004f97f0     atsd:Common.obj
 0003:0001cf9c       _Trs_CurrentTest           004faf9c     trsd:TRSAPI.OBJ
 0003:0001cfa0       _Trs_FlowStatus            004fafa0     trsd:TRSAPI.OBJ
 0003:0001cfa4       _Trs_PageSize              004fafa4     trsd:TRSAPI.OBJ
 0003:0001cfa8       _Trs_String                004fafa8     trsd:TRSAPI.OBJ
 0003:0001dba4       _TstLastStatus             004fbba4     trsd:TRSERROR.OBJ
 0003:0001dba8       __dowildcard               004fbba8     MSVCRTD:wildcard.obj
 0003:0001dbac       __newmode                  004fbbac     MSVCRTD:_newmode.obj
 0003:0001dbb0       __commode                  004fbbb0     MSVCRTD:xncommod.obj
 0003:0001dbb4       __fmode                    004fbbb4     MSVCRTD:xtxtmode.obj
 0003:0001dbc0       _mainStack                 004fbbc0     <common>
 0003:0001dc40       ___onexitend               004fbc40     <common>
 0003:0001dc44       ___onexitbegin             004fbc44     <common>
 0003:0001dc48       __adjust_fdiv              004fbc48     <common>
 0004:00000000       __IMPORT_DESCRIPTOR_CVd    004fc000     cvd:CVd.dll
 0004:00000014       __IMPORT_DESCRIPTOR_ipl    004fc014     ipl:ipl.dll
 0004:00000028       __IMPORT_DESCRIPTOR_HighGUId 004fc028     HighGUId:HighGUId.dll
 0004:0000003c       __IMPORT_DESCRIPTOR_cvauxd 004fc03c     cvauxd:cvauxd.dll
 0004:00000050       __IMPORT_DESCRIPTOR_MSVCRTD 004fc050     MSVCRTD:MSVCRTD.dll
 0004:00000064       __IMPORT_DESCRIPTOR_KERNEL32 004fc064     kernel32:KERNEL32.dll
 0004:00000078       __NULL_IMPORT_DESCRIPTOR   004fc078     cvd:CVd.dll
 0004:00000718       __imp__cvSeqPush           004fc718     cvd:CVd.dll
 0004:0000071c       __imp__cvCreateSeq         004fc71c     cvd:CVd.dll
 0004:00000720       __imp__cvChangeSeqBlock    004fc720     cvd:CVd.dll
 0004:00000724       __imp__cvStartReadSeq      004fc724     cvd:CVd.dll
 0004:00000728       __imp__cvRestoreMemStoragePos 004fc728     cvd:CVd.dll
 0004:0000072c       __imp__cvApproxPoly        004fc72c     cvd:CVd.dll
 0004:00000730       __imp__cvSaveMemStoragePos 004fc730     cvd:CVd.dll
 0004:00000734       __imp__cvCreateMemStorage  004fc734     cvd:CVd.dll
 0004:00000738       __imp__cvReleaseMemStorage 004fc738     cvd:CVd.dll
 0004:0000073c       __imp__cvContourArea       004fc73c     cvd:CVd.dll
 0004:00000740       __imp__cvContourMoments    004fc740     cvd:CVd.dll
 0004:00000744       __imp__cvMakeSeqHeaderForArray 004fc744     cvd:CVd.dll
 0004:00000748       __imp__cvReleaseImage      004fc748     cvd:CVd.dll
 0004:0000074c       __imp__cvLine              004fc74c     cvd:CVd.dll
 0004:00000750       __imp__cvFillPoly          004fc750     cvd:CVd.dll
 0004:00000754       __imp__cvCreateImage       004fc754     cvd:CVd.dll
 0004:00000758       __imp__cvClearMemStorage   004fc758     cvd:CVd.dll
 0004:0000075c       __imp__cvApproxChains      004fc75c     cvd:CVd.dll
 0004:00000760       __imp__cvReadChainPoint    004fc760     cvd:CVd.dll
 0004:00000764       __imp__cvStartReadChainPoints 004fc764     cvd:CVd.dll
 0004:00000768       __imp__cvDrawContours      004fc768     cvd:CVd.dll
 0004:0000076c       __imp__cvFindContours      004fc76c     cvd:CVd.dll
 0004:00000770       __imp__cvThreshold         004fc770     cvd:CVd.dll
 0004:00000774       __imp__cvSetSeqReaderPos   004fc774     cvd:CVd.dll
 0004:00000778       __imp__cvCvtSeqToArray     004fc778     cvd:CVd.dll
 0004:0000077c       __imp__cvContourPerimeter  004fc77c     cvd:CVd.dll
 0004:00000780       __imp__cvMatchContours     004fc780     cvd:CVd.dll
 0004:00000784       __imp__cvContourFromContourTree 004fc784     cvd:CVd.dll
 0004:00000788       __imp__cvCreateContourTree 004fc788     cvd:CVd.dll
 0004:0000078c       __imp__cvMatchContourTrees 004fc78c     cvd:CVd.dll
 0004:00000790       __imp__cvbRand             004fc790     cvd:CVd.dll
 0004:00000794       __imp__cvRandInit          004fc794     cvd:CVd.dll
 0004:00000798       __imp__cvPyrDown           004fc798     cvd:CVd.dll
 0004:0000079c       __imp__cvPyrUp             004fc79c     cvd:CVd.dll
 0004:000007a0       __imp__cvGetSeqElem        004fc7a0     cvd:CVd.dll
 0004:000007a4       __imp__cvPyrSegmentation   004fc7a4     cvd:CVd.dll
 0004:000007a8       __imp__cvEndProfile        004fc7a8     cvd:CVd.dll
 0004:000007ac       __imp__cvStartProfile      004fc7ac     cvd:CVd.dll
 0004:000007b0       __imp__cvDistTransform     004fc7b0     cvd:CVd.dll
 0004:000007b4       __imp__cvGetRawData        004fc7b4     cvd:CVd.dll
 0004:000007b8       __imp__cvAdaptiveThreshold 004fc7b8     cvd:CVd.dll
 0004:000007bc       __imp__cvCamShift          004fc7bc     cvd:CVd.dll
 0004:000007c0       __imp__cvMeanShift         004fc7c0     cvd:CVd.dll
 0004:000007c4       __imp__cvReleaseHist       004fc7c4     cvd:CVd.dll
 0004:000007c8       __imp__cvGetMinMaxHistValue 004fc7c8     cvd:CVd.dll
 0004:000007cc       __imp__cvCalcContrastHist  004fc7cc     cvd:CVd.dll
 0004:000007d0       __imp__cvSetHistBinRanges  004fc7d0     cvd:CVd.dll
 0004:000007d4       __imp__cvCreateHist        004fc7d4     cvd:CVd.dll
 0004:000007d8       __imp__cvCalcEMD           004fc7d8     cvd:CVd.dll
 0004:000007dc       __imp__cvGetHistValue_3D   004fc7dc     cvd:CVd.dll
 0004:000007e0       __imp__cvGetHistValue_2D   004fc7e0     cvd:CVd.dll
 0004:000007e4       __imp__cvGetHistValue_1D   004fc7e4     cvd:CVd.dll
 0004:000007e8       __imp__cvQueryHistValue_3D 004fc7e8     cvd:CVd.dll
 0004:000007ec       __imp__cvQueryHistValue_2D 004fc7ec     cvd:CVd.dll
 0004:000007f0       __imp__cvQueryHistValue_1D 004fc7f0     cvd:CVd.dll
 0004:000007f4       __imp__cvQueryHistValue_nD 004fc7f4     cvd:CVd.dll
 0004:000007f8       __imp__cvGetHistValue_nD   004fc7f8     cvd:CVd.dll
 0004:000007fc       __imp__cvNormalizeHist     004fc7fc     cvd:CVd.dll
 0004:00000800       __imp__cvThreshHist        004fc800     cvd:CVd.dll
 0004:00000804       __imp__cvCompareHist       004fc804     cvd:CVd.dll
 0004:00000808       __imp__cvCopyHist          004fc808     cvd:CVd.dll
 0004:0000080c       __imp__cvCalcHist          004fc80c     cvd:CVd.dll
 0004:00000810       __imp__cvCalcBackProject   004fc810     cvd:CVd.dll
 0004:00000814       __imp__cvCalcBackProjectPatch 004fc814     cvd:CVd.dll
 0004:00000818       __imp__cvReleaseImageHeader 004fc818     cvd:CVd.dll
 0004:0000081c       __imp__cvSetData           004fc81c     cvd:CVd.dll
 0004:00000820       __imp__cvCreateImageHeader 004fc820     cvd:CVd.dll
 0004:00000824       __imp__cvCalcBayesianProb  004fc824     cvd:CVd.dll
 0004:00000828       __imp__cvFloodFill         004fc828     cvd:CVd.dll
 0004:0000082c       __imp__cvEllipse           004fc82c     cvd:CVd.dll
 0004:00000830       __imp__cvGetCentralMoment  004fc830     cvd:CVd.dll
 0004:00000834       __imp__cvGetSpatialMoment  004fc834     cvd:CVd.dll
 0004:00000838       __imp__cvGetMat            004fc838     cvd:CVd.dll
 0004:0000083c       __imp__cvSet               004fc83c     cvd:CVd.dll
 0004:00000840       __imp__cvSetAt             004fc840     cvd:CVd.dll
 0004:00000844       __imp__cvInitMatHeader     004fc844     cvd:CVd.dll
 0004:00000848       __imp__cvReleaseStructuringElement 004fc848     cvd:CVd.dll
 0004:0000084c       __imp__cvDilate            004fc84c     cvd:CVd.dll
 0004:00000850       __imp__cvErode             004fc850     cvd:CVd.dll
 0004:00000854       __imp__cvCreateStructuringElementEx 004fc854     cvd:CVd.dll
 0004:00000858       __imp__cvCountNonZero      004fc858     cvd:CVd.dll
 0004:0000085c       __imp__cvSum               004fc85c     cvd:CVd.dll
 0004:00000860       __imp__cvAvg               004fc860     cvd:CVd.dll
 0004:00000864       __imp__cvAvgSdv            004fc864     cvd:CVd.dll
 0004:00000868       __imp__cvMinMaxLoc         004fc868     cvd:CVd.dll
 0004:0000086c       __imp__cvMoments           004fc86c     cvd:CVd.dll
 0004:00000870       __imp__cvGetHuMoments      004fc870     cvd:CVd.dll
 0004:00000874       __imp__cvGetNormalizedCentralMoment 004fc874     cvd:CVd.dll
 0004:00000878       __imp__cvNorm              004fc878     cvd:CVd.dll
 0004:0000087c       __imp__cvHoughLinesSDiv    004fc87c     cvd:CVd.dll
 0004:00000880       __imp__cvHoughLinesP       004fc880     cvd:CVd.dll
 0004:00000884       __imp__cvHoughLines        004fc884     cvd:CVd.dll
 0004:00000888       __imp__cvConvexHull        004fc888     cvd:CVd.dll
 0004:0000088c       __imp__cvConvexHullApprox  004fc88c     cvd:CVd.dll
 0004:00000890       __imp__cvContourConvexHull 004fc890     cvd:CVd.dll
 0004:00000894       __imp__cvContourConvexHullApprox 004fc894     cvd:CVd.dll
 0004:00000898       __imp__cvEndWriteSeq       004fc898     cvd:CVd.dll
 0004:0000089c       __imp__cvCreateSeqBlock    004fc89c     cvd:CVd.dll
 0004:000008a0       __imp__cvStartWriteSeq     004fc8a0     cvd:CVd.dll
 0004:000008a4       __imp__cvFitEllipse        004fc8a4     cvd:CVd.dll
 0004:000008a8       __imp__cvProject3D         004fc8a8     cvd:CVd.dll
 0004:000008ac       __imp__cvFitLine3D         004fc8ac     cvd:CVd.dll
 0004:000008b0       __imp__cvFitLine2D         004fc8b0     cvd:CVd.dll
 0004:000008b4       __imp__cvMinAreaRect       004fc8b4     cvd:CVd.dll
 0004:000008b8       __imp__cvSeqPushMulti      004fc8b8     cvd:CVd.dll
 0004:000008bc       __imp__cvCalcSubdivVoronoi2D 004fc8bc     cvd:CVd.dll
 0004:000008c0       __imp__cvSubdivDelaunay2DInsert 004fc8c0     cvd:CVd.dll
 0004:000008c4       __imp__cvFlushSeqWriter    004fc8c4     cvd:CVd.dll
 0004:000008c8       __imp__cvSeqElemIdx        004fc8c8     cvd:CVd.dll
 0004:000008cc       __imp__cvSubdiv2DLocate    004fc8cc     cvd:CVd.dll
 0004:000008d0       __imp__cvStartAppendToSeq  004fc8d0     cvd:CVd.dll
 0004:000008d4       __imp__cvInitSubdivDelaunay2D 004fc8d4     cvd:CVd.dll
 0004:000008d8       __imp__cvCreateSubdiv2D    004fc8d8     cvd:CVd.dll
 0004:000008dc       __imp__cvEigenProjection   004fc8dc     cvd:CVd.dll
 0004:000008e0       __imp__cvEigenDecomposite  004fc8e0     cvd:CVd.dll
 0004:000008e4       __imp__cvCalcDecompCoeff   004fc8e4     cvd:CVd.dll
 0004:000008e8       __imp__cvCalcEigenObjects  004fc8e8     cvd:CVd.dll
 0004:000008ec       __imp__cvCalcCovarMatrixEx 004fc8ec     cvd:CVd.dll
 0004:000008f0       __imp__cvSetImageROI       004fc8f0     cvd:CVd.dll
 0004:000008f4       __imp__cvAbsDiff           004fc8f4     cvd:CVd.dll
 0004:000008f8       __imp__cvAbsDiffS          004fc8f8     cvd:CVd.dll
 0004:000008fc       __imp__cvAcc               004fc8fc     cvd:CVd.dll
 0004:00000900       __imp__cvCloneImage        004fc900     cvd:CVd.dll
 0004:00000904       __imp__cvSquareAcc         004fc904     cvd:CVd.dll
 0004:00000908       __imp__cvMultiplyAcc       004fc908     cvd:CVd.dll
 0004:0000090c       __imp__cvRunningAvg        004fc90c     cvd:CVd.dll
 0004:00000910       __imp__cvCvtPixToPlane     004fc910     cvd:CVd.dll
 0004:00000914       __imp__cvCvtPlaneToPix     004fc914     cvd:CVd.dll
 0004:00000918       __imp__cvConvertScale      004fc918     cvd:CVd.dll
 0004:0000091c       __imp__cvConvertScaleAbs   004fc91c     cvd:CVd.dll
 0004:00000920       __imp__cvKMeans            004fc920     cvd:CVd.dll
 0004:00000924       __imp__cvbFastArctan       004fc924     cvd:CVd.dll
 0004:00000928       __imp__cvbSqrt             004fc928     cvd:CVd.dll
 0004:0000092c       __imp__cvbInvSqrt          004fc92c     cvd:CVd.dll
 0004:00000930       __imp__cvbCartToPolar      004fc930     cvd:CVd.dll
 0004:00000934       __imp__cvbReciprocal       004fc934     cvd:CVd.dll
 0004:00000938       __imp__cvbFastLog          004fc938     cvd:CVd.dll
 0004:0000093c       __imp__cvbFastExp          004fc93c     cvd:CVd.dll
 0004:00000940       __imp__cvSampleLine        004fc940     cvd:CVd.dll
 0004:00000944       __imp__cvInitLineIterator  004fc944     cvd:CVd.dll
 0004:00000948       __imp__cvGetRectSubPix     004fc948     cvd:CVd.dll
 0004:0000094c       __imp__cvMatchTemplate     004fc94c     cvd:CVd.dll
 0004:00000950       __imp__cvGetSeqReaderPos   004fc950     cvd:CVd.dll
 0004:00000954       __imp__cvSetSeqBlockSize   004fc954     cvd:CVd.dll
 0004:00000958       __imp__cvSeqPopFront       004fc958     cvd:CVd.dll
 0004:0000095c       __imp__cvSeqPushFront      004fc95c     cvd:CVd.dll
 0004:00000960       __imp__cvSeqPopMulti       004fc960     cvd:CVd.dll
 0004:00000964       __imp__cvSeqRemove         004fc964     cvd:CVd.dll
 0004:00000968       __imp__cvSeqInsert         004fc968     cvd:CVd.dll
 0004:0000096c       __imp__cvSeqPop            004fc96c     cvd:CVd.dll
 0004:00000970       __imp__cvSetRemove         004fc970     cvd:CVd.dll
 0004:00000974       __imp__cvGetSetElem        004fc974     cvd:CVd.dll
 0004:00000978       __imp__cvSetAdd            004fc978     cvd:CVd.dll
 0004:0000097c       __imp__cvCreateSet         004fc97c     cvd:CVd.dll
 0004:00000980       __imp__cvClearSet          004fc980     cvd:CVd.dll
 0004:00000984       __imp__cvGraphRemoveEdge   004fc984     cvd:CVd.dll
 0004:00000988       __imp__cvFindGraphEdge     004fc988     cvd:CVd.dll
 0004:0000098c       __imp__cvGraphAddEdge      004fc98c     cvd:CVd.dll
 0004:00000990       __imp__cvGraphRemoveVtxByPtr 004fc990     cvd:CVd.dll
 0004:00000994       __imp__cvGraphRemoveVtx    004fc994     cvd:CVd.dll
 0004:00000998       __imp__cvGraphVtxDegreeByPtr 004fc998     cvd:CVd.dll
 0004:0000099c       __imp__cvGraphVtxDegree    004fc99c     cvd:CVd.dll
 0004:000009a0       __imp__cvGraphAddVtx       004fc9a0     cvd:CVd.dll
 0004:000009a4       __imp__cvCreateGraph       004fc9a4     cvd:CVd.dll
 0004:000009a8       __imp__cvClearGraph        004fc9a8     cvd:CVd.dll
 0004:000009ac       __imp__cvEllipseAA         004fc9ac     cvd:CVd.dll
 0004:000009b0       __imp__cvLineAA            004fc9b0     cvd:CVd.dll
 0004:000009b4       __imp__cvPutText           004fc9b4     cvd:CVd.dll
 0004:000009b8       __imp__cvInitFont          004fc9b8     cvd:CVd.dll
 0004:000009bc       __imp__cvPolyLineAA        004fc9bc     cvd:CVd.dll
 0004:000009c0       __imp__cvPolyLine          004fc9c0     cvd:CVd.dll
 0004:000009c4       __imp__cvFillConvexPoly    004fc9c4     cvd:CVd.dll
 0004:000009c8       __imp__cvCircleAA          004fc9c8     cvd:CVd.dll
 0004:000009cc       __imp__cvCircle            004fc9cc     cvd:CVd.dll
 0004:000009d0       __imp__cvRectangle         004fc9d0     cvd:CVd.dll
 0004:000009d4       __imp__cvUpdateMotionHistory 004fc9d4     cvd:CVd.dll
 0004:000009d8       __imp__cvCalcMotionGradient 004fc9d8     cvd:CVd.dll
 0004:000009dc       __imp__cvCalcGlobalOrientation 004fc9dc     cvd:CVd.dll
 0004:000009e0       __imp__cvSegmentMotion     004fc9e0     cvd:CVd.dll
 0004:000009e4       __imp__cvCalcOpticalFlowHS 004fc9e4     cvd:CVd.dll
 0004:000009e8       __imp__cvCalcOpticalFlowLK 004fc9e8     cvd:CVd.dll
 0004:000009ec       __imp__cvCalcOpticalFlowPyrLK 004fc9ec     cvd:CVd.dll
 0004:000009f0       __imp__cvCalcProbDensity   004fc9f0     cvd:CVd.dll
 0004:000009f4       __imp__cvMaxRect           004fc9f4     cvd:CVd.dll
 0004:000009f8       __imp__cvCalcImageHomography 004fc9f8     cvd:CVd.dll
 0004:000009fc       __imp__cvCreateHandMask    004fc9fc     cvd:CVd.dll
 0004:00000a00       __imp__cvFindHandRegion    004fca00     cvd:CVd.dll
 0004:00000a04       __imp__cvLaplace           004fca04     cvd:CVd.dll
 0004:00000a08       __imp__cvSobel             004fca08     cvd:CVd.dll
 0004:00000a0c       __imp__cvReleaseData       004fca0c     cvd:CVd.dll
 0004:00000a10       __imp__cvMahalanobis       004fca10     cvd:CVd.dll
 0004:00000a14       __imp__cvMulTransposed     004fca14     cvd:CVd.dll
 0004:00000a18       __imp__cvInvert            004fca18     cvd:CVd.dll
 0004:00000a1c       __imp__cvTranspose         004fca1c     cvd:CVd.dll
 0004:00000a20       __imp__cvMatMulAdd         004fca20     cvd:CVd.dll
 0004:00000a24       __imp__cvSub               004fca24     cvd:CVd.dll
 0004:00000a28       __imp__cvCopy              004fca28     cvd:CVd.dll
 0004:00000a2c       __imp__cvAdd               004fca2c     cvd:CVd.dll
 0004:00000a30       __imp__cvSetIdentity       004fca30     cvd:CVd.dll
 0004:00000a34       __imp__cvSetZero           004fca34     cvd:CVd.dll
 0004:00000a38       __imp__cvCreateData        004fca38     cvd:CVd.dll
 0004:00000a3c       __imp__cvDet               004fca3c     cvd:CVd.dll
 0004:00000a40       __imp__cvEigenVV           004fca40     cvd:CVd.dll
 0004:00000a44       __imp__cvTrace             004fca44     cvd:CVd.dll
 0004:00000a48       __imp__cvCrossProduct      004fca48     cvd:CVd.dll
 0004:00000a4c       __imp__cvDotProduct        004fca4c     cvd:CVd.dll
 0004:00000a50       __imp__cvPerspectiveTransform 004fca50     cvd:CVd.dll
 0004:00000a54       __imp__cvReshape           004fca54     cvd:CVd.dll
 0004:00000a58       __imp__cvReleaseMat        004fca58     cvd:CVd.dll
 0004:00000a5c       __imp__cvSVD               004fca5c     cvd:CVd.dll
 0004:00000a60       __imp__cvCreateMat         004fca60     cvd:CVd.dll
 0004:00000a64       __imp__cvCanny             004fca64     cvd:CVd.dll
 0004:00000a68       __imp__cvCornerEigenValsAndVecs 004fca68     cvd:CVd.dll
 0004:00000a6c       __imp__cvCornerMinEigenVal 004fca6c     cvd:CVd.dll
 0004:00000a70       __imp__cvPreCornerDetect   004fca70     cvd:CVd.dll
 0004:00000a74       __imp__cvFree              004fca74     cvd:CVd.dll
 0004:00000a78       __imp__cvXorS              004fca78     cvd:CVd.dll
 0004:00000a7c       __imp__cvRand              004fca7c     cvd:CVd.dll
 0004:00000a80       __imp__cvRandSetRange      004fca80     cvd:CVd.dll
 0004:00000a84       __imp__cvRandNext          004fca84     cvd:CVd.dll
 0004:00000a88       __imp__cvAlloc             004fca88     cvd:CVd.dll
 0004:00000a8c       __imp__cvSubRS             004fca8c     cvd:CVd.dll
 0004:00000a90       __imp__cvAddS              004fca90     cvd:CVd.dll
 0004:00000a94       __imp__cvMul               004fca94     cvd:CVd.dll
 0004:00000a98       __imp__cvInitImageHeader   004fca98     cvd:CVd.dll
 0004:00000a9c       __imp__cvSetImageCOI       004fca9c     cvd:CVd.dll
 0004:00000aa0       __imp__cvGetImageROI       004fcaa0     cvd:CVd.dll
 0004:00000aa4       __imp__cvXor               004fcaa4     cvd:CVd.dll
 0004:00000aa8       __imp__cvOrS               004fcaa8     cvd:CVd.dll
 0004:00000aac       __imp__cvOr                004fcaac     cvd:CVd.dll
 0004:00000ab0       __imp__cvAndS              004fcab0     cvd:CVd.dll
 0004:00000ab4       __imp__cvAnd               004fcab4     cvd:CVd.dll
 0004:00000ab8       __imp__cvReleasePOSITObject 004fcab8     cvd:CVd.dll
 0004:00000abc       __imp__cvPOSIT             004fcabc     cvd:CVd.dll
 0004:00000ac0       __imp__cvCreatePOSITObject 004fcac0     cvd:CVd.dll
 0004:00000ac4       __imp__cvReleaseConDensation 004fcac4     cvd:CVd.dll
 0004:00000ac8       __imp__cvConDensUpdateByTime 004fcac8     cvd:CVd.dll
 0004:00000acc       __imp__cvConDensInitSampleSet 004fcacc     cvd:CVd.dll
 0004:00000ad0       __imp__cvCreateConDensation 004fcad0     cvd:CVd.dll
 0004:00000ad4       __imp__cvReleaseKalman     004fcad4     cvd:CVd.dll
 0004:00000ad8       __imp__cvKalmanUpdateByTime 004fcad8     cvd:CVd.dll
 0004:00000adc       __imp__cvKalmanUpdateByMeasurement 004fcadc     cvd:CVd.dll
 0004:00000ae0       __imp__cvCreateKalman      004fcae0     cvd:CVd.dll
 0004:00000ae4       __imp__cvSnakeImage        004fcae4     cvd:CVd.dll
 0004:00000ae8       __imp__cvProjectPointsSimple 004fcae8     cvd:CVd.dll
 0004:00000aec       __imp__cvCalibrateCamera_64d 004fcaec     cvd:CVd.dll
 0004:00000af0       __imp__cvFindCornerSubPix  004fcaf0     cvd:CVd.dll
 0004:00000af4       __imp__cvFindChessBoardCornerGuesses 004fcaf4     cvd:CVd.dll
 0004:00000af8       __imp__cvCvtColor          004fcaf8     cvd:CVd.dll
 0004:00000afc       __imp__cvUnDistortOnce     004fcafc     cvd:CVd.dll
 0004:00000b00       __imp__cvUnDistort         004fcb00     cvd:CVd.dll
 0004:00000b04       __imp__cvUnDistortInit     004fcb04     cvd:CVd.dll
 0004:00000b08       __imp__cvImgToObs_DCT      004fcb08     cvd:CVd.dll
 0004:00000b0c       __imp__cvLoadPrimitives    004fcb0c     cvd:CVd.dll
 0004:00000b10       \177CVd_NULL_THUNK_DATA    004fcb10     cvd:CVd.dll
 0004:00000b14       __imp__cvvWaitKey          004fcb14     HighGUId:HighGUId.dll
 0004:00000b18       __imp__cvvShowImage        004fcb18     HighGUId:HighGUId.dll
 0004:00000b1c       __imp__cvvNamedWindow      004fcb1c     HighGUId:HighGUId.dll
 0004:00000b20       __imp__cvvLoadImage        004fcb20     HighGUId:HighGUId.dll
 0004:00000b24       __imp__cvvSaveImage        004fcb24     HighGUId:HighGUId.dll
 0004:00000b28       \177HighGUId_NULL_THUNK_DATA 004fcb28     HighGUId:HighGUId.dll
 0004:00000b2c       __imp__SetThreadPriority@8 004fcb2c     kernel32:KERNEL32.dll
 0004:00000b30       __imp__WriteConsoleA@20    004fcb30     kernel32:KERNEL32.dll
 0004:00000b34       __imp__GetStdHandle@4      004fcb34     kernel32:KERNEL32.dll
 0004:00000b38       __imp__ReleaseMutex@4      004fcb38     kernel32:KERNEL32.dll
 0004:00000b3c       __imp__GetCurrentThreadId@0 004fcb3c     kernel32:KERNEL32.dll
 0004:00000b40       __imp__WaitForSingleObject@8 004fcb40     kernel32:KERNEL32.dll
 0004:00000b44       __imp__CreateEventA@16     004fcb44     kernel32:KERNEL32.dll
 0004:00000b48       __imp__GetCurrentThread@0  004fcb48     kernel32:KERNEL32.dll
 0004:00000b4c       __imp__SetEvent@4          004fcb4c     kernel32:KERNEL32.dll
 0004:00000b50       __imp__CreateThread@24     004fcb50     kernel32:KERNEL32.dll
 0004:00000b54       __imp__GetEnvironmentVariableA@12 004fcb54     kernel32:KERNEL32.dll
 0004:00000b58       __imp__CloseHandle@4       004fcb58     kernel32:KERNEL32.dll
 0004:00000b5c       __imp__GetCurrentProcess@0 004fcb5c     kernel32:KERNEL32.dll
 0004:00000b60       __imp__GetProcessAffinityMask@12 004fcb60     kernel32:KERNEL32.dll
 0004:00000b64       __imp__QueryPerformanceFrequency@4 004fcb64     kernel32:KERNEL32.dll
 0004:00000b68       __imp__QueryPerformanceCounter@4 004fcb68     kernel32:KERNEL32.dll
 0004:00000b6c       __imp__GetVersionExA@4     004fcb6c     kernel32:KERNEL32.dll
 0004:00000b70       __imp__GetSystemInfo@4     004fcb70     kernel32:KERNEL32.dll
 0004:00000b74       __imp__CreateMutexA@12     004fcb74     kernel32:KERNEL32.dll
 0004:00000b78       \177KERNEL32_NULL_THUNK_DATA 004fcb78     kernel32:KERNEL32.dll
 0004:00000b7c       __imp____p__fmode          004fcb7c     MSVCRTD:MSVCRTD.dll
 0004:00000b80       __imp____p__commode        004fcb80     MSVCRTD:MSVCRTD.dll
 0004:00000b84       __imp___adjust_fdiv        004fcb84     MSVCRTD:MSVCRTD.dll
 0004:00000b88       __imp____setusermatherr    004fcb88     MSVCRTD:MSVCRTD.dll
 0004:00000b8c       __imp___initterm           004fcb8c     MSVCRTD:MSVCRTD.dll
 0004:00000b90       __imp____getmainargs       004fcb90     MSVCRTD:MSVCRTD.dll
 0004:00000b94       __imp____p___initenv       004fcb94     MSVCRTD:MSVCRTD.dll
 0004:00000b98       __imp___XcptFilter         004fcb98     MSVCRTD:MSVCRTD.dll
 0004:00000b9c       __imp___exit               004fcb9c     MSVCRTD:MSVCRTD.dll
 0004:00000ba0       __imp__remove              004fcba0     MSVCRTD:MSVCRTD.dll
 0004:00000ba4       __imp__rename              004fcba4     MSVCRTD:MSVCRTD.dll
 0004:00000ba8       __imp__strchr              004fcba8     MSVCRTD:MSVCRTD.dll
 0004:00000bac       __imp__strncat             004fcbac     MSVCRTD:MSVCRTD.dll
 0004:00000bb0       __imp__vsprintf            004fcbb0     MSVCRTD:MSVCRTD.dll
 0004:00000bb4       __imp__gets                004fcbb4     MSVCRTD:MSVCRTD.dll
 0004:00000bb8       __imp__exit                004fcbb8     MSVCRTD:MSVCRTD.dll
 0004:00000bbc       __imp__vfprintf            004fcbbc     MSVCRTD:MSVCRTD.dll
 0004:00000bc0       __imp____set_app_type      004fcbc0     MSVCRTD:MSVCRTD.dll
 0004:00000bc4       __imp___controlfp          004fcbc4     MSVCRTD:MSVCRTD.dll
 0004:00000bc8       __imp____dllonexit         004fcbc8     MSVCRTD:MSVCRTD.dll
 0004:00000bcc       __imp___onexit             004fcbcc     MSVCRTD:MSVCRTD.dll
 0004:00000bd0       __imp___except_handler3    004fcbd0     MSVCRTD:MSVCRTD.dll
 0004:00000bd4       __imp__fputc               004fcbd4     MSVCRTD:MSVCRTD.dll
 0004:00000bd8       __imp___iob                004fcbd8     MSVCRTD:MSVCRTD.dll
 0004:00000bdc       __imp__fflush              004fcbdc     MSVCRTD:MSVCRTD.dll
 0004:00000be0       __imp__ctime               004fcbe0     MSVCRTD:MSVCRTD.dll
 0004:00000be4       __imp__fgetc               004fcbe4     MSVCRTD:MSVCRTD.dll
 0004:00000be8       __imp__clock               004fcbe8     MSVCRTD:MSVCRTD.dll
 0004:00000bec       __imp___stricmp            004fcbec     MSVCRTD:MSVCRTD.dll
 0004:00000bf0       __imp__difftime            004fcbf0     MSVCRTD:MSVCRTD.dll
 0004:00000bf4       __imp__calloc              004fcbf4     MSVCRTD:MSVCRTD.dll
 0004:00000bf8       __imp__strstr              004fcbf8     MSVCRTD:MSVCRTD.dll
 0004:00000bfc       __imp__sscanf              004fcbfc     MSVCRTD:MSVCRTD.dll
 0004:00000c00       __imp____CxxFrameHandler   004fcc00     MSVCRTD:MSVCRTD.dll
 0004:00000c04       __imp___fullpath           004fcc04     MSVCRTD:MSVCRTD.dll
 0004:00000c08       __imp__fprintf             004fcc08     MSVCRTD:MSVCRTD.dll
 0004:00000c0c       __imp__sin                 004fcc0c     MSVCRTD:MSVCRTD.dll
 0004:00000c10       __imp__cos                 004fcc10     MSVCRTD:MSVCRTD.dll
 0004:00000c14       __imp___chkesp             004fcc14     MSVCRTD:MSVCRTD.dll
 0004:00000c18       __imp__memcpy              004fcc18     MSVCRTD:MSVCRTD.dll
 0004:00000c1c       __imp__sqrt                004fcc1c     MSVCRTD:MSVCRTD.dll
 0004:00000c20       __imp___assert             004fcc20     MSVCRTD:MSVCRTD.dll
 0004:00000c24       __imp__rand                004fcc24     MSVCRTD:MSVCRTD.dll
 0004:00000c28       __imp__srand               004fcc28     MSVCRTD:MSVCRTD.dll
 0004:00000c2c       __imp__time                004fcc2c     MSVCRTD:MSVCRTD.dll
 0004:00000c30       __imp___ftol               004fcc30     MSVCRTD:MSVCRTD.dll
 0004:00000c34       __imp__abs                 004fcc34     MSVCRTD:MSVCRTD.dll
 0004:00000c38       __imp__acos                004fcc38     MSVCRTD:MSVCRTD.dll
 0004:00000c3c       __imp__atan                004fcc3c     MSVCRTD:MSVCRTD.dll
 0004:00000c40       __imp__cosh                004fcc40     MSVCRTD:MSVCRTD.dll
 0004:00000c44       __imp__exp                 004fcc44     MSVCRTD:MSVCRTD.dll
 0004:00000c48       __imp__floor               004fcc48     MSVCRTD:MSVCRTD.dll
 0004:00000c4c       __imp__log                 004fcc4c     MSVCRTD:MSVCRTD.dll
 0004:00000c50       __imp__pow                 004fcc50     MSVCRTD:MSVCRTD.dll
 0004:00000c54       __imp_??3@YAXPAX@Z         004fcc54     MSVCRTD:MSVCRTD.dll
 0004:00000c58       __imp_??2@YAPAXI@Z         004fcc58     MSVCRTD:MSVCRTD.dll
 0004:00000c5c       __imp__fabs                004fcc5c     MSVCRTD:MSVCRTD.dll
 0004:00000c60       __imp__memset              004fcc60     MSVCRTD:MSVCRTD.dll
 0004:00000c64       __imp__free                004fcc64     MSVCRTD:MSVCRTD.dll
 0004:00000c68       __imp__realloc             004fcc68     MSVCRTD:MSVCRTD.dll
 0004:00000c6c       __imp__putchar             004fcc6c     MSVCRTD:MSVCRTD.dll
 0004:00000c70       __imp__malloc              004fcc70     MSVCRTD:MSVCRTD.dll
 0004:00000c74       __imp__printf              004fcc74     MSVCRTD:MSVCRTD.dll
 0004:00000c78       __imp__atan2               004fcc78     MSVCRTD:MSVCRTD.dll
 0004:00000c7c       __imp__fclose              004fcc7c     MSVCRTD:MSVCRTD.dll
 0004:00000c80       __imp__strncpy             004fcc80     MSVCRTD:MSVCRTD.dll
 0004:00000c84       __imp__fseek               004fcc84     MSVCRTD:MSVCRTD.dll
 0004:00000c88       __imp__fread               004fcc88     MSVCRTD:MSVCRTD.dll
 0004:00000c8c       __imp__fopen               004fcc8c     MSVCRTD:MSVCRTD.dll
 0004:00000c90       __imp__strcat              004fcc90     MSVCRTD:MSVCRTD.dll
 0004:00000c94       __imp__strcpy              004fcc94     MSVCRTD:MSVCRTD.dll
 0004:00000c98       __imp__strcmp              004fcc98     MSVCRTD:MSVCRTD.dll
 0004:00000c9c       __imp__strrchr             004fcc9c     MSVCRTD:MSVCRTD.dll
 0004:00000ca0       __imp__sprintf             004fcca0     MSVCRTD:MSVCRTD.dll
 0004:00000ca4       __imp__memmove             004fcca4     MSVCRTD:MSVCRTD.dll
 0004:00000ca8       __imp__memcmp              004fcca8     MSVCRTD:MSVCRTD.dll
 0004:00000cac       __imp__fscanf              004fccac     MSVCRTD:MSVCRTD.dll
 0004:00000cb0       __imp__strlen              004fccb0     MSVCRTD:MSVCRTD.dll
 0004:00000cb4       __imp__tan                 004fccb4     MSVCRTD:MSVCRTD.dll
 0004:00000cb8       \177MSVCRTD_NULL_THUNK_DATA 004fccb8     MSVCRTD:MSVCRTD.dll
 0004:00000cbc       __imp__icvStartScanGraph   004fccbc     cvauxd:cvauxd.dll
 0004:00000cc0       __imp__icvNextGraphItem    004fccc0     cvauxd:cvauxd.dll
 0004:00000cc4       __imp__icvEndScanGraph     004fccc4     cvauxd:cvauxd.dll
 0004:00000cc8       __imp__icvSeqRemoveSlice   004fccc8     cvauxd:cvauxd.dll
 0004:00000ccc       __imp__icvSeqInsertSlice   004fcccc     cvauxd:cvauxd.dll
 0004:00000cd0       __imp__icvCopySeq          004fccd0     cvauxd:cvauxd.dll
 0004:00000cd4       __imp__icvSeqSlice         004fccd4     cvauxd:cvauxd.dll
 0004:00000cd8       __imp__icvSeqInvert        004fccd8     cvauxd:cvauxd.dll
 0004:00000cdc       __imp__icvSeqSort          004fccdc     cvauxd:cvauxd.dll
 0004:00000ce0       __imp__icvSubdiv2DCheck    004fcce0     cvauxd:cvauxd.dll
 0004:00000ce4       __imp__icvFindNearestPoint2D 004fcce4     cvauxd:cvauxd.dll
 0004:00000ce8       __imp__icvInitSeqTreeIterator 004fcce8     cvauxd:cvauxd.dll
 0004:00000cec       __imp__icvNextSeq          004fccec     cvauxd:cvauxd.dll
 0004:00000cf0       \177cvauxd_NULL_THUNK_DATA 004fccf0     cvauxd:cvauxd.dll
 0004:00000cf4       __imp__iplDCT2D@12         004fccf4     ipl:ipl.dll
 0004:00000cf8       __imp__iplBlur@24          004fccf8     ipl:ipl.dll
 0004:00000cfc       __imp__iplConvolveSep2D@16 004fccfc     ipl:ipl.dll
 0004:00000d00       __imp__iplConvolveSep2DFP@16 004fcd00     ipl:ipl.dll
 0004:00000d04       __imp__iplGetPerspectiveBound@12 004fcd04     ipl:ipl.dll
 0004:00000d08       __imp__iplSetROI@24        004fcd08     ipl:ipl.dll
 0004:00000d0c       __imp__iplWarpPerspective@20 004fcd0c     ipl:ipl.dll
 0004:00000d10       __imp__iplRGB2HSV@8        004fcd10     ipl:ipl.dll
 0004:00000d14       __imp__iplSetFP@8          004fcd14     ipl:ipl.dll
 0004:00000d18       __imp__iplSetErrMode@4     004fcd18     ipl:ipl.dll
 0004:00000d1c       __imp__iplXor@12           004fcd1c     ipl:ipl.dll
 0004:00000d20       __imp__iplSubtractS@16     004fcd20     ipl:ipl.dll
 0004:00000d24       __imp__iplMaxFilter@24     004fcd24     ipl:ipl.dll
 0004:00000d28       __imp__iplThreshold@12     004fcd28     ipl:ipl.dll
 0004:00000d2c       __imp__iplGreaterS@12      004fcd2c     ipl:ipl.dll
 0004:00000d30       __imp__iplMultiplySFP@12   004fcd30     ipl:ipl.dll
 0004:00000d34       __imp__iplMultiply@12      004fcd34     ipl:ipl.dll
 0004:00000d38       __imp__iplAdd@12           004fcd38     ipl:ipl.dll
 0004:00000d3c       __imp__iplSubtractSFP@16   004fcd3c     ipl:ipl.dll
 0004:00000d40       __imp__iplSubtract@12      004fcd40     ipl:ipl.dll
 0004:00000d44       __imp__iplAbs@8            004fcd44     ipl:ipl.dll
 0004:00000d48       __imp__iplAndS@12          004fcd48     ipl:ipl.dll
 0004:00000d4c       __imp__iplGetCentralMoment@12 004fcd4c     ipl:ipl.dll
 0004:00000d50       __imp__iplSetBorderMode@16 004fcd50     ipl:ipl.dll
 0004:00000d54       __imp__iplConvert@8        004fcd54     ipl:ipl.dll
 0004:00000d58       __imp__iplDeallocate@8     004fcd58     ipl:ipl.dll
 0004:00000d5c       __imp__iplCreateImageHeader@56 004fcd5c     ipl:ipl.dll
 0004:00000d60       __imp__iplAllocateImageFP@12 004fcd60     ipl:ipl.dll
 0004:00000d64       __imp__iplAllocateImage@12 004fcd64     ipl:ipl.dll
 0004:00000d68       __imp__iplGetErrStatus@0   004fcd68     ipl:ipl.dll
 0004:00000d6c       __imp__iplZoom@28          004fcd6c     ipl:ipl.dll
 0004:00000d70       __imp__iplCreateConvKernelFP@20 004fcd70     ipl:ipl.dll
 0004:00000d74       __imp__iplCreateConvKernel@24 004fcd74     ipl:ipl.dll
 0004:00000d78       __imp__iplConvolve2DFP@20  004fcd78     ipl:ipl.dll
 0004:00000d7c       __imp__iplConvolve2D@20    004fcd7c     ipl:ipl.dll
 0004:00000d80       __imp__iplDecimate@28      004fcd80     ipl:ipl.dll
 0004:00000d84       __imp__iplDeleteConvKernelFP@4 004fcd84     ipl:ipl.dll
 0004:00000d88       __imp__iplDeleteConvKernel@4 004fcd88     ipl:ipl.dll
 0004:00000d8c       __imp__iplCopy@8           004fcd8c     ipl:ipl.dll
 0004:00000d90       __imp__iplSet@8            004fcd90     ipl:ipl.dll
 0004:00000d94       __imp__iplNorm@12          004fcd94     ipl:ipl.dll
 0004:00000d98       __imp__iplMoments@8        004fcd98     ipl:ipl.dll
 0004:00000d9c       __imp__iplGetSpatialMoment@12 004fcd9c     ipl:ipl.dll
 0004:00000da0       \177ipl_NULL_THUNK_DATA    004fcda0     ipl:ipl.dll

 entry point at        0001:000d8f30

 Static symbols

 0001:00081118       ?foaCvTreeIteratorType@@YAHPAX@Z 00482118 f   atreeiterator.obj
 0001:0007d838       ?foaCvTreeType@@YAHPAX@Z   0047e838 f   atree.obj
 0001:0007c768       ?foaCvArrayType@@YAHPAX@Z  0047d768 f   astoragearray.obj
 0001:000780f4       ?foaCvOperationsType@@YAHPAX@Z 004790f4 f   aoperations.obj
 0001:00077c48       ?foaCvNodeIteratorType@@YAHPAX@Z 00478c48 f   anodeiterator.obj
 0001:0006cf74       ?foaCVHistogramType@@YAHPAX@Z 0046df74 f   ahistogram.obj
 0001:0006af14       ?foaCvCalculateType@@YAHPAX@Z 0046bf14 f   acalculate.obj
 0001:000613a4       ?foaCvBackProjectType@@YAHPAX@Z 004623a4 f   abackproject.obj
 0001:00060b98       ?foaCvArrayIteratorType@@YAHPAX@Z 00461b98 f   aarrayiterator.obj
 0001:000602ac       ?hmm_dct_test@@YAHXZ       004612ac f   aHMMObs.obj
 0001:00060817       ?read_hmm_obs_params@@YAXXZ 00461817 f   aHMMObs.obj
 0001:000608a6       ?hmm_obs_dct_get_size@@YA?AUCvSize@@PAU_IplImage@@U1@1@Z 004618a6 f   aHMMObs.obj
 0001:00060930       ?hmm_obs_dct_etalon@@YAXPAU_IplImage@@PADUCvSize@@22@Z 00461930 f   aHMMObs.obj
 0001:0005e5a8       ?fmaUnDistort@@YAHXZ       0045f5a8 f   aUnDistort.obj
 0001:0005ce1c       ?chess_corner_test@@YAHXZ  0045de1c f   aChessCorners.obj
 0001:0005bc9e       ?calibrationTest@@YAHPAX@Z 0045cc9e f   aCameraCalibration.obj
 0001:0005b5ae       ?fmaSnakes@@YAHPAX@Z       0045c5ae f   asnakes.obj
 0001:0005af34       ?fcaKalman@@YAHXZ          0045bf34 f   aKalman.obj
 0001:0005a947       ?fcaConDens@@YAHXZ         0045b947 f   aCondens.obj
 0001:0005ae1a       ?CondProbDens@@YAXPAUCvConDensation@@PAM@Z 0045be1a f   aCondens.obj
 0001:00059e17       ?fmaPOSIT@@YAHXZ           0045ae17 f   aposit.obj
 0001:00058fde       ?logic_test@@YAHPAX@Z      00459fde f   alogic.obj
 0001:00059cca       ?read_arithm_params@@YAXXZ 0045acca f   alogic.obj
 0001:00057ce0       _$E2                       00458ce0 f   aimage.obj
 0001:00057cf1       _$E1                       00458cf1 f   aimage.obj
 0001:00057d47       ?foaImage@@YAHXZ           00458d47 f   aimage.obj
 0001:00056cbe       ?arithm_test@@YAHPAX@Z     00457cbe f   aarithm.obj
 0001:00057b67       ?read_arithm_params@@YAXXZ 00458b67 f   aarithm.obj
 0001:00055517       ?fcaPreCorner@@YAHXZ       00456517 f   aPreCorner.obj
 0001:0005586e       ?preCorner@@YAHPAU_IplImage@@0H@Z 0045686e f   aPreCorner.obj
 0001:00054a67       ?fcaMinEVal@@YAHXZ         00455a67 f   aMinEVal.obj
 0001:00054ec5       ?calcMinVal@@YAXPAU_IplImage@@0HH@Z 00455ec5 f   aMinEVal.obj
 0001:00053b47       ?fcaCorner@@YAHXZ          00454b47 f   aCorner.obj
 0001:0005406a       ?calcVals@@YAXPAU_IplImage@@0HH@Z 0045506a f   aCorner.obj
 0001:0005381e       ?fmaCanny@@YAHPAX@Z        0045481e f   aCanny.obj
 0001:000531c4       ?svd_test@@YAHPAX@Z        004541c4 f   asvd.obj
 0001:0005371c       ?read_svd_params@@YAXXZ    0045471c f   asvd.obj
 0001:00050de4       ?fcaMatrMatr2@@YAHPAX@Z    00451de4 f   aMatrix2.obj
 0001:0004efd8       ?fcaMatrMatr@@YAHPAX@Z     0044ffd8 f   aMatrix.obj
 0001:0004e607       ?fcaSobel@@YAHXZ           0044f607 f   aSobel.obj
 0001:0004de27       ?fcaScharr@@YAHXZ          0044ee27 f   aScharr.obj
 0001:0004d617       ?fcaSobel@@YAHXZ           0044e617 f   aLaplace.obj
 0001:0004c33e       ?aGestureRecognition@@YAHXZ 0044d33e f   aGestureRecognition.obj
 0001:0004bbfc       ?pyrlk_test@@YAHXZ         0044cbfc f   aOptFlowPyrLK.obj
 0001:0004ab87       ?fmaCalcOpticalFlowLK@@YAHXZ 0044bb87 f   aOptFlowLK.obj
 0001:00049b17       ?fmaCalcOpticalFlowHS@@YAHXZ 0044ab17 f   aOptFlowHS.obj
 0001:00049137       ?fcaMotSeg@@YAHXZ          0044a137 f   aMotSeg.obj
 0001:0004688c       ?update_mhi_by_time_test@@YAHXZ 0044788c f   aMotionTemplates.obj
 0001:00046cd8       ?UpdateMHIByTimeEtalon@@YAXPAU_IplImage@@0MM@Z 00447cd8 f   aMotionTemplates.obj
 0001:00046de7       ?read_mot_templ2_params@@YAXXZ 00447de7 f   aMotionTemplates.obj
 0001:00046e9b       ?calc_motion_gradient_test@@YAHXZ 00447e9b f   aMotionTemplates.obj
 0001:00047663       ?CalcMotionGradientEtalon@@YAXPAU_IplImage@@0000HMMH@Z 00448663 f   aMotionTemplates.obj
 0001:00047c2c       ?compare_img_angles@@YANPAU_IplImage@@00@Z 00448c2c f   aMotionTemplates.obj
 0001:00047da0       ?calc_global_orientation_test@@YAHXZ 00448da0 f   aMotionTemplates.obj
 0001:00048547       ?CalcGlobalOrientationEtalon@@YAXPAU_IplImage@@00MMPAM1@Z 00449547 f   aMotionTemplates.obj
 0001:00044edc       ?drawing_test@@YAHXZ       00445edc f   adrawing_regress.obj
 0001:000465fc       ?ProcessImage@@YAHPAU_IplImage@@PADH@Z 004475fc f   adrawing_regress.obj
 0001:000466b2       ?CheckImage@@YAHPAU_IplImage@@PAD1@Z 004476b2 f   adrawing_regress.obj
 0001:000440fc       ?drawing_test@@YAHPAX@Z    004450fc f   aDrawing.obj
 0001:00044d8c       ?read_drawing_params@@YAXXZ 00445d8c f   aDrawing.obj
 0001:0003ffcf       ?test_sequence@@YAHXZ      00440fcf f   aSequence.obj
 0001:00040456       ?read_data_struct_params@@YAXXZ 00441456 f   aSequence.obj
 0001:00040534       ?check_seq_block_consistence@@YAHPAUCvSeq@@HPAPBD@Z 00441534 f   aSequence.obj
 0001:00040680       ?check_get_seq_elem@@YAHPAUCvSeq@@PAU_simple_seq@@PAUAtsRandState@@HPAPBDPAW4CvStatus@@@Z 00441680 f   aSequence.obj
 0001:00040901       ?check_get_seq_reading@@YAHPAUCvSeq@@PAU_simple_seq@@PAUAtsRandState@@HPAPBDPAW4CvStatus@@@Z 00441901 f   aSequence.obj
 0001:00040d56       ?test_multi_create@@YAHHPAPAUCvSeq@@HPAPAU_simple_seq@@PAUCvMemStorage@@PAUAtsRandState@@PAPBDPAW4CvStatus@@@Z 00441d56 f   aSequence.obj
 0001:000410ca       ?test_seq_ops@@YAHHPAPAUCvSeq@@PAPAU_simple_seq@@PAUAtsRandState@@HPAPBDPAW4CvStatus@@@Z 004420ca f   aSequence.obj
 0001:00041cea       ?calc_storage_blocks@@YAHPAUCvMemStorage@@@Z 00442cea f   aSequence.obj
 0001:00041d30       ?test_set@@YAHXZ           00442d30 f   aSequence.obj
 0001:00041fd6       ?test_set_ops@@YAHHPAPAUCvSet@@PAPAU_simple_set@@PAUAtsRandState@@HPAUCvMemStorage@@PAPBDPAW4CvStatus@@@Z 00442fd6 f   aSequence.obj
 0001:00042511       ?test_graph@@YAHXZ         00443511 f   aSequence.obj
 0001:000427c6       ?test_graph_ops@@YAHHPAPAUCvGraph@@PAPAU_simple_graph@@PAUAtsRandState@@HPAUCvMemStorage@@PAPBDPAW4CvStatus@@@Z 004437c6 f   aSequence.obj
 0001:00043790       ?test_seq_slice@@YAHXZ     00444790 f   aSequence.obj
 0001:00043a7b       ?test_graph_search@@YAHXZ  00444a7b f   aSequence.obj
 0001:0003df74       ?match_templ_test@@YAHPAX@Z 0043ef74 f   aTemplMatch.obj
 0001:0003e7c0       ?read_templ_match_params@@YAXXZ 0043f7c0 f   aTemplMatch.obj
 0001:0003e95f       ?match_templ_etalon@@YAXPAU_IplImage@@00W4CvTemplMatchMethod@@@Z 0043f95f f   aTemplMatch.obj
 0001:0003ecb7       ?calc_mean@@YANPAU_IplImage@@@Z 0043fcb7 f   aTemplMatch.obj
 0001:0003c334       ?line_smp_test@@YAHPAX@Z   0043d334 f   aSamplers.obj
 0001:0003d094       ?read_smp_params@@YAXXZ    0043e094 f   aSamplers.obj
 0001:0003d181       ?get_coordinates@@YA?AUCvPoint@@PAXPAU_IplImage@@@Z 0043e181 f   aSamplers.obj
 0001:0003d1ef       ?rect_smp_test@@YAHPAX@Z   0043e1ef f   aSamplers.obj
 0001:0003d960       ?samp_rect_etalon@@YAXPAU_IplImage@@0UCvPoint2D32f@@@Z 0043e960 f   aSamplers.obj
 0001:00039c24       ?test_arctan@@YAHXZ        0043ac24 f   aMathUtils.obj
 0001:0003a30a       ?read_atan_params@@YAXXZ   0043b30a f   aMathUtils.obj
 0001:0003a399       ?test_sqrt@@YAHPAX@Z       0043b399 f   aMathUtils.obj
 0001:0003a91e       ?read_sqrt_params@@YAXXZ   0043b91e f   aMathUtils.obj
 0001:0003a975       ?test_cart_to_polar@@YAHXZ 0043b975 f   aMathUtils.obj
 0001:0003b2e8       ?test_recip@@YAHXZ         0043c2e8 f   aMathUtils.obj
 0001:0003b6bb       ?test_log@@YAHXZ           0043c6bb f   aMathUtils.obj
 0001:0003bb41       ?read_log_params@@YAXXZ    0043cb41 f   aMathUtils.obj
 0001:0003bbc5       ?test_exp@@YAHXZ           0043cbc5 f   aMathUtils.obj
 0001:0003c023       ?read_exp_params@@YAXXZ    0043d023 f   aMathUtils.obj
 0001:00039766       ?fmaKMeans@@YAHXZ          0043a766 f   akmeans.obj
 0001:00037634       ?cvt_pix_to_plane_test@@YAHPAX@Z 00438634 f   aConvert.obj
 0001:00037ce3       ?read_cvt_params@@YAXXZ    00438ce3 f   aConvert.obj
 0001:00037e29       ?cvt_plane_to_pix_test@@YAHPAX@Z 00438e29 f   aConvert.obj
 0001:000383b1       ?cvt_scale_test@@YAHPAX@Z  004393b1 f   aConvert.obj
 0001:00038a93       ?cvt_scale_abs_test@@YAHPAX@Z 00439a93 f   aConvert.obj
 0001:00035e05       ?fcaLinAcc@@YAHXZ          00436e05 f   aMaskAccum.obj
 0001:0003625a       ?fcaSqrAcc@@YAHXZ          0043725a f   aMaskAccum.obj
 0001:000366e2       ?fcaMultAcc@@YAHXZ         004376e2 f   aMaskAccum.obj
 0001:00036cce       ?fcaRunAvg@@YAHXZ          00437cce f   aMaskAccum.obj
 0001:00034e35       ?fcaLinAcc@@YAHXZ          00435e35 f   aAccum.obj
 0001:00035148       ?fcaSqrAcc@@YAHXZ          00436148 f   aAccum.obj
 0001:0003548e       ?fcaMultAcc@@YAHXZ         0043648e f   aAccum.obj
 0001:00035946       ?fcaRunAvg@@YAHXZ          00436946 f   aAccum.obj
 0001:0003416c       ?absdiff_test@@YAHPAX@Z    0043516c f   aAbsDiff.obj
 0001:000346ac       ?read_absdiff_params@@YAXXZ 004356ac f   aAbsDiff.obj
 0001:000347ab       ?absdiff_scalar_test@@YAHPAX@Z 004357ab f   aAbsDiff.obj
 0001:0003038e       ?_cvCalcCovarMatrix_8u32fR_q@@YA?AW4CvStatus@@HPAPAEHPAMHUCvSize@@1@Z 0043138e f   aEigenObjects.obj
 0001:00030e3d       ?fmaEigenObjects@@YAHXZ    00431e3d f   aEigenObjects.obj
 0001:0002edff       ?subdiv_test@@YAHXZ        0042fdff f   aSubdivisions.obj
 0001:0002eaba       ?fmaMinAreaRect@@YAHXZ     0042faba f   aminarearect.obj
 0001:0002d23a       ?fmaConvexHull@@YAHPAX@Z   0042e23a f   aconvhull.obj
 0001:0002d513       ?fmaConvexHullContour@@YAHPAX@Z 0042e513 f   aconvhull.obj
 0001:0002b85f       ?fmaNormMask@@YAHXZ        0042c85f f   aNormMask.obj
 0001:00029ab5       ?fmaNorm@@YAHXZ            0042aab5 f   aNorm.obj
 0001:00027fdc       ?moments_test@@YAHPAX@Z    00428fdc f   aMoments.obj
 0001:00028587       ?rel_err@@YANNN@Z          00429587 f   aMoments.obj
 0001:000285d9       ?read_moments_params@@YAXXZ 004295d9 f   aMoments.obj
 0001:00028764       ?hu_moments_test@@YAHXZ    00429764 f   aMoments.obj
 0001:00028d21       ?sqr@@YANN@Z               00429d21 f   aMoments.obj
 0001:00025114       ?count_non_zero_test@@YAHPAX@Z 00426114 f   aImageStatistics.obj
 0001:00025669       ?read_img_stat_params@@YAXXZ 00426669 f   aImageStatistics.obj
 0001:000257f4       ?sum_pixels_test@@YAHPAX@Z 004267f4 f   aImageStatistics.obj
 0001:00025da6       ?rel_err2@@YANNNN@Z        00426da6 f   aImageStatistics.obj
 0001:00025dd1       ?mean_test@@YAHPAX@Z       00426dd1 f   aImageStatistics.obj
 0001:000265e7       ?mean_stddev_test@@YAHPAX@Z 004275e7 f   aImageStatistics.obj
 0001:00026e47       ?rel_err@@YANNN@Z          00427e47 f   aImageStatistics.obj
 0001:00026e99       ?min_max_loc_test@@YAHPAX@Z 00427e99 f   aImageStatistics.obj
 0001:00027ac7       ?check_extr_point@@YANPAU_IplImage@@0UCvPoint@@N@Z 00428ac7 f   aImageStatistics.obj
 0001:00023fac       ?MorphTest@@YAHPAX@Z       00424fac f   aMorphology.obj
 0001:000248ec       ?read_moprh_params@@YAXXZ  004258ec f   aMorphology.obj
 0001:000205c3       ?_atsCalcConicPoint@@YAXNNNNNNNPAUCvPoint@@@Z 004215c3 f   uIplUtils.obj
 0001:0001ba6b       ?fmaFloodFill8@@YAHXZ      0041ca6b f   aFloodFill8.obj
 0001:0001a0a1       ?fmaFloodFill@@YAHXZ       0041b0a1 f   aFloodFill.obj
 0001:00012fc6       ?foaHistGetQueryValue@@YAHPAX@Z 00413fc6 f   aHistograms.obj
 0001:000133e9       ?foaHistMinMaxValue@@YAHPAX@Z 004143e9 f   aHistograms.obj
 0001:00013950       ?foaNormalizeHist@@YAHPAX@Z 00414950 f   aHistograms.obj
 0001:00013d29       ?foaThreshHist@@YAHPAX@Z   00414d29 f   aHistograms.obj
 0001:00014176       ?foaHistCompare@@YAHPAX@Z  00415176 f   aHistograms.obj
 0001:000149d5       ?foaCopyHist@@YAHPAX@Z     004159d5 f   aHistograms.obj
 0001:00014c34       ?foaCalcHist@@YAHPAX@Z     00415c34 f   aHistograms.obj
 0001:00015b4d       ?foaCalcHistMask@@YAHPAX@Z 00416b4d f   aHistograms.obj
 0001:00016b41       ?foaBackProject@@YAHPAX@Z  00417b41 f   aHistograms.obj
 0001:00017dd9       ?foaBackProjectPatch@@YAHPAX@Z 00418dd9 f   aHistograms.obj
 0001:000189e3       ?myBackProjectPatch@@YAHPAPAU_IplImage@@00PAUCvHistogram@@PAU1@22MW4CvCompareMethod@@UCvSize@@@Z 004199e3 f   aHistograms.obj
 0001:0001934b       ?foaBayesianProb@@YAHPAX@Z 0041a34b f   aHistograms.obj
 0001:00012a1d       ?emd_test@@YAHPAX@Z        00413a1d f   aEMD.obj
 0001:00012afc       ?matr_dist@@YAMPBM0PAX@Z   00413afc f   aEMD.obj
 0001:00011f77       ?aCalcContrastHist@@YAHXZ  00412f77 f   aCalcContrastHist.obj
 0001:0000c1c3       ?foaPixelAccessUCHAR@@YAHXZ 0040d1c3 f   aPixelAccess.obj
 0001:0000e06a       ?foaPixelAccessCHAR@@YAHXZ 0040f06a f   aPixelAccess.obj
 0001:0000ff11       ?foaPixelAccessFLOAT@@YAHXZ 00410f11 f   aPixelAccess.obj
 0001:0000bb62       ?foaMeanShiftC1R@@YAHPAX@Z 0040cb62 f   aMeanShift.obj
 0001:0000b372       ?foaCamShiftC1R@@YAHPAX@Z  0040c372 f   aCamShift.obj
 0001:0000a636       ?foaThreshold@@YAHPAX@Z    0040b636 f   aThresh.obj
 0001:0000acd1       ?myThreshR@@YAHPAU_IplImage@@00MMW4CvThreshType@@@Z 0040bcd1 f   aThresh.obj
 0001:0000ada6       ?myThresh@@YAHPAEPADPAMMMHW4CvThreshType@@@Z 0040bda6 f   aThresh.obj
 0001:000099d7       ?aAdaptThreshold@@YAHXZ    0040a9d7 f   aAdaptThresh.obj
 0001:0000880d       ?aPyrSegmentation@@YAHPAX@Z 0040980d f   aPyrSegmentation.obj
 0001:000071ec       ?PyrDownCmpIPL@@YAHPAX@Z   004081ec f   aPyramids.obj
 0001:00007999       ?ipl_apply_gaussian@@YAXPAU_IplImage@@0PAX@Z 00408999 f   aPyramids.obj
 0001:00007c4b       ?calc_kernel@@YAPAXHH@Z    00408c4b f   aPyramids.obj
 0001:00007d5b       ?read_pyramid_params@@YAXXZ 00408d5b f   aPyramids.obj
 0001:00007ee6       ?PyrUpCmpIPL@@YAHPAX@Z     00408ee6 f   aPyramids.obj
 0001:0000868b       ?clear_even_rows_and_cols@@YAXPAU_IplImage@@@Z 0040968b f   aPyramids.obj
 0001:00006607       ?aMatchContourTrees@@YAHXZ 00407607 f   aMatchContourTrees.obj
 0001:00005d87       ?aCreateContourTree@@YAHXZ 00406d87 f   aCreateContourTree.obj
 0001:00005567       ?aMatchContours@@YAHXZ     00406567 f   aContoursMatch.obj
 0001:000041a2       ?contour_retrieving_test@@YAHXZ 004051a2 f   aContours.obj
 0001:00004d0b       ?mark_contours_etalon@@YAXPAU_IplImage@@H@Z 00405d0b f   aContours.obj
 0001:00004e78       ?contour_perimeter_test@@YAHXZ 00405e78 f   aContours.obj
 0001:000031c3       ?aContourMoments@@YAHPAX@Z 004041c3 f   aContourMoments.obj
 0001:000007b0       ?aApproxPoly@@YAHXZ        004017b0 f   aApproxPoly.obj
 0001:0008f1a9       __SMP_GetEnvNProcessors    004901a9 f   mkl_c:smp.obj
 0001:0008f446       __SMP_IsNULL               00490446 f   mkl_c:smp.obj
 0001:0008f4de       _SMP_Driver                004904de f   mkl_c:smp.obj
 0001:000cfec3       _calc_shift                004d0ec3 f   atsd:randex.obj
 0001:000d6930       _DeleteInpList             004d7930 f   trsd:TRSREAD.OBJ
 0001:000d6990       _DeleteValueList           004d7990 f   trsd:TRSREAD.OBJ
 0001:000d6a20       _ParseInput                004d7a20 f   trsd:TRSREAD.OBJ
 0001:000d6cf0       _cmdAct                    004d7cf0 f   trsd:TRSREAD.OBJ
 0001:000d6da0       _ParseTokens               004d7da0 f   trsd:TRSREAD.OBJ
 0001:000d6e90       _DeleteTokenList           004d7e90 f   trsd:TRSREAD.OBJ
 0001:000d6ee0       _ErrorMess                 004d7ee0 f   trsd:TRSREAD.OBJ
 0001:000d6f10       _AssignValue               004d7f10 f   trsd:TRSREAD.OBJ
 0001:000d7060       _AddInpValueList           004d8060 f   trsd:TRSREAD.OBJ
 0001:000d7280       _ScanValueList             004d8280 f   trsd:TRSREAD.OBJ
 0001:000d72e0       _FillDst                   004d82e0 f   trsd:TRSREAD.OBJ
 0001:000d7660       _Warning                   004d8660 f   trsd:TRSREAD.OBJ
 0001:000d7690       _ParseTokenAssign          004d8690 f   trsd:TRSREAD.OBJ
 0001:000d7b70       _AddInputListEntry         004d8b70 f   trsd:TRSREAD.OBJ
 0001:000d7c80       _ScanInpList               004d8c80 f   trsd:TRSREAD.OBJ
 0001:000d8120       _DeleteInpListEntry        004d9120 f   trsd:TRSREAD.OBJ
 0001:000d2700       _DeleteComments            004d3700 f   trsd:TRSAPI.OBJ
 0001:000d2770       _trsPrintHeader            004d3770 f   trsd:TRSAPI.OBJ
 0001:000d2a10       _putnchar                  004d3a10 f   trsd:TRSAPI.OBJ
 0001:000d2a50       _TimeString                004d3a50 f   trsd:TRSAPI.OBJ
 0001:000d2b20       _trsPrintFooter            004d3b20 f   trsd:TRSAPI.OBJ
 0001:000d2dc0       _Reverse                   004d3dc0 f   trsd:TRSAPI.OBJ
 0001:000d2e10       _WrLn                      004d3e10 f   trsd:TRSAPI.OBJ
 0001:000d2e40       _ParseCmdLine              004d3e40 f   trsd:TRSAPI.OBJ
 0001:000d3040       _ParseSwitches             004d4040 f   trsd:TRSAPI.OBJ
 0001:000d3430       _KeysWithArg               004d4430 f   trsd:TRSAPI.OBJ
 0001:000d34e0       _MayHasArg                 004d44e0 f   trsd:TRSAPI.OBJ
 0001:000d3530       _InvalidKey                004d4530 f   trsd:TRSAPI.OBJ
 0001:000d3580       _ResetKeyArgBuf            004d4580 f   trsd:TRSAPI.OBJ
 0001:000d35c0       _StoreCh                   004d45c0 f   trsd:TRSAPI.OBJ
 0001:000d3620       _StoreArg                  004d4620 f   trsd:TRSAPI.OBJ
 0001:000d36b0       _AssignCmd                 004d46b0 f   trsd:TRSAPI.OBJ
 0001:000d36f0       _NextCh                    004d46f0 f   trsd:TRSAPI.OBJ
 0001:000d3730       _CompareFields             004d4730 f   trsd:TRSAPI.OBJ
 0001:000d3880       _NL                        004d4880 f   trsd:TRSAPI.OBJ
 0001:000d38b0       _Mismatch                  004d48b0 f   trsd:TRSAPI.OBJ
 0001:000d3910       _MismatchFileName          004d4910 f   trsd:TRSAPI.OBJ
 0001:000d3990       _PrintFieldInfo            004d4990 f   trsd:TRSAPI.OBJ
 0001:000d39e0       _ProcessKeys               004d49e0 f   trsd:TRSAPI.OBJ
 0001:000d3bc0       _CmdLineHelp               004d4bc0 f   trsd:TRSAPI.OBJ
 0001:000d3f70       _FHlp                      004d4f70 f   trsd:TRSAPI.OBJ
 0001:000d3fa0       _OpenTstFile               004d4fa0 f   trsd:TRSAPI.OBJ
 0001:000d4030       _FindPrev                  004d5030 f   trsd:TRSAPI.OBJ
 0001:000d4070       _trsInit                   004d5070 f   trsd:TRSAPI.OBJ
 0001:000d4180       _trsTerminateAll           004d5180 f   trsd:TRSAPI.OBJ
 0001:000d42e0       _getFrequency              004d52e0 f   trsd:TRSAPI.OBJ
 0001:000d4400       _getCounter                004d5400 f   trsd:TRSAPI.OBJ
 0001:000d4c30       _trsCSVHeader              004d5c30 f   trsd:TRSAPI.OBJ
 0001:000d5200       _Next_buf_idx              004d6200 f   trsd:TRSAPI.OBJ
 0001:000d5320       _trsCSVClose               004d6320 f   trsd:TRSAPI.OBJ
 0001:000d5360       _trsCSVFooter              004d6360 f   trsd:TRSAPI.OBJ
 0001:000d5580       _More                      004d6580 f   trsd:TRSAPI.OBJ
 0001:000d5680       _Printf                    004d6680 f   trsd:TRSAPI.OBJ
 0001:000d57c0       _trsComment                004d67c0 f   trsd:TRSAPI.OBJ
 0001:000d5a60       _DeleteAppList             004d6a60 f   trsd:TRSAPI.OBJ
 0001:000d5a90       _DeleteApp                 004d6a90 f   trsd:TRSAPI.OBJ
 0001:000d5b00       _DeleteKey                 004d6b00 f   trsd:TRSAPI.OBJ
 0001:000d5d40       _trsGetPrivateProfileString 004d6d40 f   trsd:TRSAPI.OBJ
 0001:000d5de0       _FindApp                   004d6de0 f   trsd:TRSAPI.OBJ
 0001:000d5e30       _FindKey                   004d6e30 f   trsd:TRSAPI.OBJ
 0001:000d5e80       _LoadAppList               004d6e80 f   trsd:TRSAPI.OBJ
 0001:000d61e0       _NewApp                    004d71e0 f   trsd:TRSAPI.OBJ
 0001:000d6270       _NewKey                    004d7270 f   trsd:TRSAPI.OBJ
 0001:000d64d0       _trsWritePrivateProfileString 004d74d0 f   trsd:TRSAPI.OBJ
 0001:000d6590       _SaveAppList               004d7590 f   trsd:TRSAPI.OBJ
 0001:000d9090       MORE32                     004da090 f   MSVCRTD:llshr.obj
 0001:000d909b       RETSIGN                    004da09b f   MSVCRTD:llshr.obj
 0001:000d8ef0       MORE32                     004d9ef0 f   MSVCRTD:llshl.obj
 0001:000d8efa       RETZERO                    004d9efa f   MSVCRTD:llshl.obj
 0001:000d8e70       _$$$00001                  004d9e70 f   MSVCRTD:chkstk.obj
 0001:000d8e7c       probepages                 004d9e7c f   MSVCRTD:chkstk.obj
 0001:000d8e90       lastpage                   004d9e90 f   MSVCRTD:chkstk.obj
 0001:000d8e49       hard                       004d9e49 f   MSVCRTD:llmul.obj

FIXUPS: d74f6 2a e 1a e 280 29d8 1a ffffff76 fffffe68 1c f 3b 1f 27 ffffd093
FIXUPS: d711d 16 11 1f 18 11 c c c c 36 25 18 31 22 2b 18 12 3c 15 1d e
FIXUPS: d738d c 11 72 16 15 2c 47 2b fffff65f 5f 2c 24 21 13 18 4c 27 2e
FIXUPS: d6d1e 37 15 20 24 1d 3f 50 59 16 c 30 21 1f 1f 1f ad 31 23 23 14
FIXUPS: d70d6 fffff254 58 14 14 46 1c 14 10e 37 3e 2e 6b a3 79 52 65 21
FIXUPS: d6845 a5 6d 7 19 1b 38 5c 15 42 3c 1d 11 42 f ffffefc9 2f 2f 5d
FIXUPS: d5c1c 44 14 43 16 15 16 2a 34 15 16 29 13 31 14 13 14 ab d2 e1
FIXUPS: d60d6 42 42 42 1e 80 50 50 ffffeec8 40 68 10 f f e f f 26 d2 3c
FIXUPS: d549c 24 2a 49 57 74 b 25 b 1f6 35 32 45 dc be 20 1c 17 17 f fffff39c
FIXUPS: d4e97 d d d d d d d d d d d d d d d 2d 27 37 9c 11 11 29 1a 14
FIXUPS: d5110 14 16 f 41 b fffffb55 d d d d d d d d d d d d d d d d d d
FIXUPS: d4de1 d d d d d d d d d d d d fffffc84 19 8 7 26 f e c e c e 30
FIXUPS: d4be6 d d d d d d d d d d d d d d d d d d d fffff6a8 b9 116 1a
FIXUPS: d466d 24 2d 8c 1c 1c 1c 15 1c 1c 19 19 19 19 14 32 29 28 38 80
FIXUPS: d49c3 29 13 34 a 3d 47 27 fffff4ff 23 10 13 2f d f 5a e 19 3d 55
FIXUPS: d419c c 19 18 38 1c 8 12 1d 2c 29 11 8 44 1c 7 1c 8 10 10 fffff8d8
FIXUPS: d3c5f 3c 25 2e 15 22 23 d a 1f f d a 11 6e 32 31 12 d 17 12 d 17
FIXUPS: d3f04 d 17 12 d 18 62 17 fffff80e 11 1c 1c 22 25 19 28 e 23 1c
FIXUPS: d3916 e 11 16 1d e 19 2a f f 16 11 31 34 de 23 21 6b 24 25 f fffff137
FIXUPS: d2d99 18 2d c 1a 37 1a 37 18 3c6 1af 8 3c 34 b 16 8 9f a 17 3b
FIXUPS: d35c7 c 15 1a f d 16 25 8 177 5dbb 32 32 83 65 5f 30 30 30 30 32
FIXUPS: d9860 30 30 30 30 30 30 ffff8de4 194 92 86 40 7c 48 84 56 50 50
FIXUPS: d2cde 50 2d 6101 2e c 33 19 23 14 2e 1b 35 3f 2e 22 30 5d 1b a
FIXUPS: d90e2 a f3 12 19 17 16 f 20 a8 13 13 a4 151 35 fffff201 55 13 17
FIXUPS: d8822 16 18 1a 39 16 3e 30 97 98 44 f 2e 47 32 2e 3a f 12 63 19
FIXUPS: d8cab 6d 51 73 f 38 1a fffff155 16 31 2d 45 23 2c 24 15 2d 3c 7a
FIXUPS: d81d5 37 45 5a 3e 165 32 40 13 30 3a 3f 47 16 9a 26 27 13 34 33
FIXUPS: d9caa 17 1f 3e ffffdb71 2d 21 2d 5 146 16 a9 4b 8 e 3a 3e 3f 14
FIXUPS: d7c78 21 29 15 f2 30 20 12 c8 8 3e 16 19 ffff9c8a 79 3e 23 4b 38
FIXUPS: d1d6d 77 3c 23 fffff6cf 8 77 8 7d 8 7e e3 fffff678 16 39 16 2a
FIXUPS: d0f25 4d0 87af 17 17 35 2a 35 27 ffff867e 43 f 10 fffffb4e 26 2b
FIXUPS: d1f32 cd 26 2b 26 fffff76d 14 14 68 1a 1a 71 1a 1a 71 47 1a 18
FIXUPS: d1ab6 4b 1f 18 4e 3a 1a fffb2211 20 fffff0a9 fffffdfc 15 1a 31
FIXUPS: 82d27 17 36 42 15 1a 31 17 17 36 11 fffffddd 4f792 fffffcff 43
FIXUPS: d2152 12 33 16 11 16 22 10 5f 97 fffb296e 87 52 20 ffffe2a0 4f
FIXUPS: 83110 4c 20 127 55 ad 48 20 fc 48 84 40 20 122 50 aa 48 20 151
FIXUPS: 83a69 87 52 20 151 5f 87 11b2 ffffff8b ffffff85 ffffffc2 ffffff98
FIXUPS: 84d9c fffff1bf 4f be 4c 20 127 55 ad 48 20 fc 48 84 40 20 122 50
FIXUPS: 847a9 48 20 151 5f 87 52 20 151 20ab c9 fffff56a 134 f2 21 f3 e2
FIXUPS: 86723 5 5 24 ffffeeeb 17c 117 1cb f2 1be dc e0 c0 cc fffff350 ffffff84
FIXUPS: 852eb ffffff8a ffffff9a ffffff8b ffffff84 ffffff84 ffffff85 ffffff8a
FIXUPS: 881cd cf 10d d3 3d 27 27 ffffe925 fd bb 5 5 f4 fc e1 c2 5 5 f0
FIXUPS: 87571 39 24 24 fffff261 30 122 df 21 104 e5 1e 5 21a5 1e 5 5 6e
FIXUPS: 8858d 120 cb 21 f7 d6 1e 5 5 6e ffffecd0 15f d6 5 ea 5 5 11b d7
FIXUPS: 87d13 e5 119 ce 5 d6 5 5 1dd8 109 e8 1e 5 5 d4 ffffee4c 1bb 31
FIXUPS: 8928c b 1b7 31 d9 b 198 31 c4 b 1af 31 cd b 26 5 27 ffffef78 120
FIXUPS: 88c68 21 f7 1fdc 30 d7 5d a8 30 97 ca 63 bd 2f a8 70 d9 2f c4 6c
FIXUPS: 8b65c 30 b1 73 dd 2f c8 18 5 27 ffffe224 24 54 135 e2 2591 ce 5
FIXUPS: 8c4e4 f5 cf 109 d3 3d 27 27 ffffd91b 2f 3b 80 a9 2f 98 ce 6e ce
FIXUPS: 8a6bc b9 7f de 2e c9 73 ce 2e b9 7f 2724 69 fffff5a3 28 24 24 24
FIXUPS: 8ca52 107 d3 21 fb cc 1e 5 5 69 ffffebe2 28 37 161 d6 5 fa 5 5
FIXUPS: 8bf35 d7 12b e5 11d ce bf87 1c8 1bf b9 56 f4 ffff7783 9 37 e a
FIXUPS: 900fe 8 e 10 7d 120 15 73 1ed 291 ffffc779 28 24 1e 107 d3 21 fb
FIXUPS: 8d36c 1e 5 858d 71 19b 1b8 173 71 19c 1b8 177 71 18b 1b9 1af b3
FIXUPS: 969fc 102 59c 71 be 72 e1 24b 191 71 187 1ca 18d 71 188 1ca 18d
FIXUPS: 98208 ffffb0ce 56 af 78 57 f1 236 168 ab 56 198 1da 161 ae 56 199
FIXUPS: 94384 161 ae 56 197 1d8 1d0 ba 56 f6 5ad 72 c8 72 de 240 678f cc
FIXUPS: 98959 ffff8071 65f b2 57 af 77 57 eb 264 161 bd 56 1e0 1f3 15a
FIXUPS: 91e5f 56 1e1 1f3 161 bd 56 1c3 1f5 1cf ca 56 116 55f c86c ca de
FIXUPS: 9fce9 ec c1 e9 d4 ffffd42f 26 7cf ca 61b d1 5b0 c1 6d7 cf ffffcf0e
FIXUPS: 9c17d 3b1 3de 230 576 ffffb985 1f d25 c2 b87 cf d69 ce 4ecb 48
FIXUPS: a02dc c5 173 bc 15a b9 158 bc a9 e3 b9 156 bd 163 ba 14f b8 ffffe0a3
FIXUPS: 9f337 28 25 21 db a8 c5 b5 cf b8 c3 af 5af7 68 1ca 188 183 a7 55
FIXUPS: a5bc9 534 68 96 69 e2 24e 173 68 1d1 19b 177 68 1d2 19b 17c 68
FIXUPS: a73dc 19b 189 b3 4e 109 ffff8841 26 2c41 81 77 166 ce 53 7f 14f
FIXUPS: a3476 b1 77 1f2 1df 1a0 b3 77 113 1b2 599 69 b4 69 da 22a 14d 68
FIXUPS: a4ca4 188 151 68 1cf 188 667f 24a 593 ffffb88a 1f d0a c2 b8f cf
FIXUPS: aa1f0 ce cd9 cc ffff62e7 495 7c 7f 1b0 ec 5a 7f 18a 18c ba 7f 20e
FIXUPS: a2482 1a1 c7 7f 139 19f bab6 25 21 d3 ac bc b2 d2 b7 bd b3 e2 ca
FIXUPS: aedb5 bc f0 c1 e1 d4 ffffd3e2 26 7e0 d1 684 d1 5bb c7 6b9 ce ffffcdca
FIXUPS: ab1ea 3cc fff5635e 1b 25 1b 19 11 28 10 bb3ed ffff250c 26 24 4a
FIXUPS: af465 ca 177 bc 148 b9 152 bf b0 dc b9 149 bd 163 ba 148 b8 ffffe0db
FIXUPS: ae4d8 fff52e9e 5c 12 2b 25 62 30 5e 22 15 2d f 1f 46 12 2e 21 66
FIXUPS: 16d2 1f 37 49 2f a 2b 1b 4f 22 a 1d 22 47 259a 59 2c 1a 19 2c 1a
FIXUPS: 3fa7 19 41 41 13 43 17 2c 26 16 ffffcf3b 28 17 17 17 20 2d 1a 2e
FIXUPS: 1168 23 14 25 b2 7f 26a9 1b 24 33 2c 17 19 2c 1a 10 59 2c 1a 19
FIXUPS: 3ba6 1a 1e 19 9b 31 24 4d 1b 18 1b 24 33 2c 17 19 2c 1a fffff5e6
FIXUPS: 347c 38 28 28 b 10 b 1e 16 79 31 4c 1b 18 1b 2b 25 29 11 10 5f
FIXUPS: 37c0 29 11 1e 16 9b 31 24 4d 1b fffff611 22 10 b 10 41 10 b 1e
FIXUPS: 3071 4d 58 8e 31 12 45 45 1b 18 1b 11 22 18 b 10 41 18 b 1e 14
FIXUPS: 33cc 4f fffff739 11 22 1d 8 10 41 10 b 1e 14 87 4a 1b 18 18 1b
FIXUPS: 2d92 22 18 b 10 41 18 b 1e 13 72 4a 1b 18 1b fffff770 20 23 11
FIXUPS: 276c 10 b 10 3e 10 b 1e 13 73 4a 1b 20 23 11 22 1d 8 10 3e 1d 8
FIXUPS: 2a25 14 73 5a 1b 18 fffff7c6 4a 1b 1c 16 1c 19 11 22 10 b 10 f
FIXUPS: 2473 10 b 1e 13 56 2d 23 b 10 8 10 3e 10 8 1e 13 72 4a fffff6b5
FIXUPS: 1da2 46 96 91 1c e 48 25 20 4c 18 41 16 6b 4a 1b 16 10 16 13 11
FIXUPS: 21d3 10 b 10 f 3b 10 b 1e 13 29ce 35 6a 29 22 29 29 48 1c 7b 2a
FIXUPS: 4ed7 f 18 ffffcb51 13 14 13 23 4f 93 1a 44 13 40 4f 32 4d d b 2a
FIXUPS: 1d6c 297c e 2b 2f e c1 26 2b 9e 1b 10 1c 1c 1c 1c 1c 1c 1c 1c 1c
FIXUPS: 4a51 1c 1c 1c 1c 1c 1c 32 49 33 23 3c 17bd 4e 11 1f 25 1c 17 28
FIXUPS: 64d0 23 ffffdc5b 32 33 a 16a 2a 2a 27 2a 2a 33 27 4f 1a 17 a9 2f
FIXUPS: 45b6 2b 2f e 9b 164a 70 1b d4 e 3b 53 8 1e 2a 11 3e 3d 26 3e 30
FIXUPS: 608b 27 47 2c 1b 26 3f 75 1b 18 15 51 15 2e 82 37 fffff410 2e 55
FIXUPS: 5857 2e 32 46 8e 1e 18 20 15 41 15 18 60 15 2e 30 15 2e 89 11 c
FIXUPS: 5c2c c c 28 1c 17 28 f fffff604 11 70 1e 52 10 d 9 10 e 24 14 30
FIXUPS: 5498 1f 1e 18 45 3b 34 39 2a 12 76 18 f 15 41 15 16 16 60 12ba
FIXUPS: 6a90 e 28 2c e 11a 29 5a 72 f c 18 ffffe223 1c 1c 1c 1c 1c 14 110
FIXUPS: 512e 34 30 a 92 8 1e 32 17 17 17 21fc 1d 5e f 30 f f c 18 ffffef94
FIXUPS: 6561 ae 27 41 2a 2a 27 27 1d 17 3f 19 62 e 3e e 127 2c e 28 2c
FIXUPS: 6a24 476 27 1d 17 3f 1c 53 e 38 e 39 2c e 2b 2c e 3a 2c e 2b 2c
FIXUPS: 71a8 c6 30 35 15 5a 1d 5e 1d 68 1d 64e 42 b 2e 2f e 2b 2f e 29
FIXUPS: 7c01 2e 2f e 31 2f e 117 2c f 27 2a 43 5e f f f 18 ffffee14 a b8
FIXUPS: 6e70 2735 15 e 2f 1c 17 2c f 1e 4c 38 5b 1b 10 ffffde6a a e0 2a
FIXUPS: 774f 2a 2a 27 2a 2a 1d 17 3f 1f 62 e 41 e 13e4 49 3e 3e 3a 1c 21
FIXUPS: 8eab 1c 17 dc 1b 8 88 28 2d 29 2d 1dd 1f 28 e 2c 1c 15 67 48 1a
FIXUPS: 9480 fb c f fffff05a 1f 28 e 2c 1f 18 1a 7b 51 fe c c f 15 e 2f
FIXUPS: 8921 17 2c f 1e 6d b5 2f 5d 2f 82 17 3c eb 17 135b 4b 42 4b 42
FIXUPS: a1f7 2b f f f 1c ffffdd35 34 34 34 34 34 34 34 34 34 34 34 a 9f
FIXUPS: 82db 8 9f 2d 25 25 1a 24bf 38 34 a ffffee84 31 a 1e1 2a 27 59 2b
FIXUPS: 9ad3 2b 2d 10 2b 1a f 15 5e 5d 2b 92 98 60 5e 96 33 35 9d 54 3e1
FIXUPS: a45e 1c 27 13 5 66 1b 5 2a 1b 5 9f 8 d c 19 16 c b4 29 2a 48 c
FIXUPS: a7f8 16 17 1b 1a 37 1e 11 88d 28 22 2b 25 28 22 3a f c c f c 16
FIXUPS: b2dc 16 19 f c 18 ffffef66 10 2c 10 6f 2d b 25 1a 13 26 1b 1d67
FIXUPS: a9c7 a 89 2a 35 14 17 9a 2c e 2b 2c e 86 2c e 2b 2c e a5 19 19
FIXUPS: ae35 19 1c 2b 1f 43 4d c9 11e add 34 e c c c c c 25 1e 3f 16 16
FIXUPS: bd8d 11 67 20 19 1e 4f 20 19 1e 4f 2c 19 29 54 3b 74 3b 81 fffff51f
FIXUPS: b6b9 28 1a 13 1d 13 1a 13 1a 13 1d 13 1a 2d 27 27 27 27 27 e4 5d
FIXUPS: ba42 30 5a 21 27 31 21 27 31 21 a9c 63 3b 3e 17 67 52 27 3a 24
FIXUPS: c8e6 24 3a 11 25 1e ffffe9e4 31 31 30 31 31 30 31 31 30 31 31 30
FIXUPS: b5f5 31 a 193a 21 51 52 3c 2c 3c 11 25 1e fffff0b6 31 31 30 31
FIXUPS: c2d0 30 31 31 a d2 1c 1c 1c 1c 1c 1c 7a 2d 79 14 4d 685d 21 c 25
FIXUPS: 12f33 ffff9a99 31 31 30 31 31 30 31 31 a b4 1c 1c 1c 1c 1c 1c 7a
FIXUPS: cd5f 73 14 4d 14 63 3b 3e 17 53e9 84 2c 21 84 2c 21 d1 2c 21 d4
FIXUPS: 126e3 21 d4 2c 21 d1 2c 21 d1 2c 21 d4 2c 21 d4 2c 21 d4 2c 21
FIXUPS: 12e98 ffffebcb 2c 21 9e 2c 21 a2 2c 21 9e 2c 21 81 2c 21 84 2c
FIXUPS: 11f14 84 2c 21 81 2c 21 81 2c 21 84 2c 21 84 2c ffffeeb9 2c 21
FIXUPS: 11243 57 21 59 21 5e 2c 5c 2c 85 2c 21 85 2c 21 87 2c 21 83 2c
FIXUPS: 1178f 61 21 61 21 6d 2c 69 2c ffffef87 21 c2 2b 21 c5 2b 21 c5
FIXUPS: 10c78 21 c5 2b 21 c5 2b 21 c 25 1d 2a 9c 29 29 24 24 24 21 24 24
FIXUPS: 11117 15 ffffee86 7d 2b 21 7a 2b 21 7a 2b 21 7d 2b 21 7d 2b 21
FIXUPS: 10416 2b 21 7d 2b 21 c2 2b 21 c5 2b 21 c5 2b 21 c2 ffffede6 7d
FIXUPS: f7ab 21 7b 2b 21 5d 21 5d 21 5f 2b 5f 2b 94 2b 21 94 2b 21 94 2b
FIXUPS: fd43 94 2b 21 7a 2b 21 7d 2b fffff08f 25 1d 2a 95 29 29 24 24 24
FIXUPS: f200 24 24 21 15 88 2b 21 37 53 21 55 21 55 2b 55 2b 7b 2b 21 7d
FIXUPS: f6e2 ffffeeb8 21 7d 2b 21 c2 2b 21 c5 2b 21 c5 2b 21 c2 2b 21 c2
FIXUPS: ebaf 21 c5 2b 21 c5 2b 21 c5 2b 21 c5 2b 21 ffffecc8 94 2b 21 94
FIXUPS: de7b 21 94 2b 21 7a 2b 21 7d 2b 21 7d 2b 21 7a 2b 21 7a 2b 21 7d
FIXUPS: e408 21 7d 2b 21 7d ffffef3c 37 53 21 55 21 55 2b 55 2b 7b 2b 21
FIXUPS: d810 2b 21 7d 2b 21 7b 2b 21 5d 21 5d 21 5f 2b 5f 2b 94 2b 5ba4
FIXUPS: 13873 34 33 19 3c 12 1b c f 25 c c 18 ffff978d 2d 2d a 28 95 29
FIXUPS: d2cc 24 24 24 21 24 24 21 15 88 2b 5d60 2c e 83 2c e 28 2c e 8a
FIXUPS: 133f9 e 28 2c e 92 2c e 28 2c e b4 19 32 1f 22 43 82 3f 1a 2b 17
FIXUPS: 1a614 72 23 69 79 2c 37 16 20 2a ffff91bf a 7d 14 24 14 14 89 21
FIXUPS: 12f67 a 9a 2a 32 19 17 17 23 26 91 2c e 6e7d 15 14 23 15 14 26
FIXUPS: 1a0ef 14 14c 43 16 16 15 15 18 11 c f 17 61 1c 1c 2b 19 37 74 25
FIXUPS: 1a537 18 5d 23 fffff2d9 3f 16 13 13 11 f f f f f f 24 29 38 89
FIXUPS: 19ab1 15 4b 43 2c 2c 3c 2f 2f 1a 29 26 21e 102 2a 2d fffff0ce 22
FIXUPS: 1913c 24 26 1b 26 1c 26 1b 26 1b 26 1c 26 23a aa 57 15 40 15 44
FIXUPS: 196e9 15 40 15 44 33 15 3d 15 44 fffff0ab 33 172 10 33 172 10 58
FIXUPS: 18cf8 13 13 16 14 f f f f 24 29 63 1c 1c 1c 1c 1c 46 5f 53 88 43
FIXUPS: 190a9 22 ffffeacd 1c 1c 1c 46 5f 27 53 14 fe 18 43 26 22 29 22
FIXUPS: 17f31 4e 26 1b 29 1c 26 21d 2a b4 156 36 156 36 156 36 ffffef54
FIXUPS: 1773c 12 4c 14 46 2e 1c 1c 18 29 1e 12 4c 14 27 29 1e 12 4c 14
FIXUPS: 17a59 16 13 13 16 14 f f 14 1f 29 fffff457 29 22 26 261 cc 2e 1f
FIXUPS: 1739a 18 29 1e 12 4c 14 27 29 1e 12 4c 14 46 2e 1f 1f 18 29 1e
FIXUPS: 1766e 4c 14 27 fffff278 29 1e 12 4c 14 4e 16 13 13 16 14 f f 24
FIXUPS: 16b45 5f 1c 1c 1c 16 26 a8 5f 27 27 53 14 fe 18 42 26 fffff553
FIXUPS: 164ea 1e 12 4c 14 46 2e 1a 1a 18 29 1e 12 4c 14 27 29 1e 12 4c
FIXUPS: 167d3 46 2e 17 17 18 29 1e 12 4c 14 fffff2ab 1e 1d 5f 1c 1c 1c
FIXUPS: 15d25 5f 27 27 53 14 fe 18 43 26 22 29 22 26 250 cc 2e 1a 1a 18
FIXUPS: 1640a 1e 12 4c 14 fffff275 46 12 46 14 1d 43 12 46 14 20 46 12
FIXUPS: 1594b 14 18 f 1e 29 53 1c 1c 61 56 17 12 23 1b 12 34 14 15 fffff54b
FIXUPS: 1514e 20 5c 1c 1c 79 24 94 42 1e 1c 35 1b 1b a6 1c 23 1e 28 1c
FIXUPS: 15583 1c 28 1c 28 1f 2b 1f 2b 1f 34 fffff4c9 14 23 19 12 34 14
FIXUPS: 14cda c 1e 1d 56 1c 1c 6e 1b 4e 13 15 8f 4a 1d 1d 13 1e 21 1d 25
FIXUPS: 15067 34 14 75 fffff20d 75 1e 1d 70 1c 4b 59 6c 19 1ae 3d 46 1c
FIXUPS: 14802 51 21 1f 54 1a 1e 29 53 1c 1c 6e 1b 50 13 15 8a 4a fffff1ab
FIXUPS: 13d82 2f 2f 2f 2f 2f 2f 2f 2f 2f 2f 2f 2f a 51 1c 61 4e b9 1c 1f
FIXUPS: 141ec 23 1c 27 1c 1f 1e 23 1e 27 71ef 32 134 35 136 1c3 8 16 8
FIXUPS: 1ba56 39 162 3f 13e 11 c f f f 4b 13 15 15 1e ffff7d7d 2f 2f 2f
FIXUPS: 13c97 2f 2f 2f 96bd 36 13d 3c 10a 11 c f f f 16 15 15 12 ffffd1a7
FIXUPS: 1ac7d e 87 342 e 2f a 70 1b 1e 1e 4a 17 17 1a 1a 17a 2414 15 2a
FIXUPS: 1d7f9 1a ffffe6d3 598 10 79 515 10 2f a 52 1b 1e 1e 4a 17 17 1a
FIXUPS: 1cbba 17a 17e 33 13d 3c 105 1c0 8 16 8 681b 17 17 39 35 3d 35 3d
FIXUPS: 24137 f 5f 17 17 39 35 3d 35 3d 14 212 f 4f 1a 39 35 3d 17 41 1f
FIXUPS: 24972 f ffff8e0b 534f 1e 34 6d 1c 21 13 1a 24 19 20 55 26 17 33
FIXUPS: 22d5b 3d 112 fb 104 f3 191 2b 33 38 43 112 141 14a 130 20b f ffffe7b0
FIXUPS: 222d9 e7 e 29 2f 5a 19 b 5a 18 34 3d cc 59 5b 57 59 3d 29 20 33
FIXUPS: 228d1 2f 16 24 1e 34 85 61 2f 16 fffff02e 17 1b 13 13 24 53 14
FIXUPS: 21bfc 15 16 16 16 16 16 16 16 16 16 16 16 16 16 16 16 5e 94 35b
FIXUPS: 221be 98 18 1e ffffef57 90 1a 153 58 5a 1a 13 1a 13 1a 13 1a 13
FIXUPS: 21560 5b 2e 13 71 24 13 64 22 4a 1b9 1c 60 1b 83 4e 1b e ffffee45
FIXUPS: 2092d 2d a6 14 8c 4f 4b 69 13 9b 1f 1e 5b 25 21 b6 12 47 13 5c
FIXUPS: 20ecd 14 36 39 14 52 14 8c 61 40 13 ffffe13d 75 77 10 62 1c 19b
FIXUPS: 1f67e 3c 1f 162 148 58 17 9c 2e 39 3c 39 318 37 d0 37 5c 37 37
FIXUPS: 2009e 10d 61b 82 3b 14 ffffd796 d 3b b 8 45 4a f 47 4a f 72 22
FIXUPS: 1e286 15 1e 2c6 9e a1 ab 1c 73 1c 3de f 73 1c 3de f 29 2b be 5969
FIXUPS: 24b11 2f 94 1e 4d 44 73 1b 15 ffff8b41 56 f6 40 a2 83 7b 5 170
FIXUPS: 1dd28 5e 3c f 3a 9b 4a 4f 4d 2e c 3e 18 75fd 1f 188 c f f 19 3f
FIXUPS: 25861 17 3f f 1e 49 3e 3e 3a 1c 21 1c 1c 1c 21 1c 1c 17 ffffef47
FIXUPS: 24a4b 18 17 14 27 3af 34 34 34 34 34 34 a 10b 3c 8 b3 29 25 2c
FIXUPS: 252a6 11d 28 e 2c 1f 7f c 16 27 1b c 49 26 1c 25 21 2e26 2b 31
FIXUPS: 2851a 37 92 92 8e 99 99 194 b e e 37 1c 17 34 f 22 16d 19 e 31
FIXUPS: 28caf 38 36 ffffc043 34 34 34 34 2d49 2b 8e 15e b e e 2e 1f 17
FIXUPS: 27e3f 29 13 16 49 6e 8 ba 23 1e 22 15b 1c 28 e 17 17 13 1b 13 96
FIXUPS: 28398 ffffefdb 19 42 15c c f f 31 1f 17 24 56 64 8 bb 23 1f 21
FIXUPS: 2790f 1c 28 e 17 17 13 1b 13 80 5e 48 2b 31 ffffefa7 16 75 39 63
FIXUPS: 26d0c c 2e 1c 17 25 18 15 54 64 8 bb 23 1f 21 150 1c 28 e 17 17
FIXUPS: 2718c 1b 13 7c 5f 9c fffff07c 28 e 17 16 6c 32 30 ef c 2e 1f 17
FIXUPS: 26661 49 3e 3e 3a 1c 21 1c 1c 17 4e 61 8 ab 20 122 1c 28 e fffff142
FIXUPS: 25c58 34 34 34 34 34 34 34 34 34 34 34 34 34 34 34 34 34 34 34
FIXUPS: 26068 34 34 34 a 44 61 8 aa 20 10c 34d5 19 19 19 19 19 16 2c 1c
FIXUPS: 29970 23 23 1d 49 1d 52 23 41 1d 73 1d 55 23 67 53 39 12 ffffbe07
FIXUPS: 25b54 34 34 34 3679 28 14 17 67 17 16 5a 153 2b 1c 17 24 29 13
FIXUPS: 295d1 49 3e 3e 3a 1c 21 1c 1c 17 56 e 32 21 18 f 13 1f64 c c c
FIXUPS: 2b7e1 c c c c c 1e 11 12 ffffd502 34 34 34 34 34 34 34 34 34 34
FIXUPS: 28f9c 30 a 61 61 8 ae ff 1c73 1d 1d 1a 90 19 11b 24 23 6a 36 24
FIXUPS: 2b206 6a 39 27 23 6a 67 24 23 71 6e 24 23 71 6e 24 23 71 ce c fffff29f
FIXUPS: 2aa50 12 14 2f a 3f 1c 1c 5b 1f 1f 80 1a 17 1a 1a 17 17 1a 17 17
FIXUPS: 2ad34 17 5b 1d 1d 1d 1d 1a 55 1d 29f3 f c c c f c f c c c f 1e
FIXUPS: 2d958 12 ffffc455 51 63 3b 9a 4f 2c a2 16 89 22 59 25 8f 60 8a
FIXUPS: 2a335 2ab7 1d 1d 1d 1a 135 19 cd 2b 23 6a 4f 2b 23 6a 55 2e 23
FIXUPS: 2d347 86 2e 23 71 85 2b 23 71 8b 2e 23 71 16d ffffef93 2f a 3f
FIXUPS: 2c8b4 1c 1b f8 1f 1f 27 86 1a 17 1a 1a 17 17 1d 17 1a 1a 17 17
FIXUPS: 2cc5b 1d 1d 1d 1d 1a 20 c6 de1 10 11 e 35 31 31 a ffffdc86 62 66
FIXUPS: 2ba1e 6b 65 61 2c b0 16 97 22 5c 25 a9 5a 1e 99 12 18 880 f c 12
FIXUPS: 2e922 1f 17 4d 15 1f 11 26 19 c f 15 15 12 ffffef28 1a 5e 1a 11
FIXUPS: 2da60 12 f 4c 37 34 10 f 12 f c 12 12 700 1c 12 15 45 1d 22 11f
FIXUPS: 2e4ac 1a 22 15 e 83 1c a 15 12 14 43 24 1d 42 30 1a 35 15 d8 64
FIXUPS: 2e8a5 1b 4d 25b 8 16 8 44 20 f 30 7f 17 24 38 2f 2f 2f 2a 15 15
FIXUPS: 2ee15 34 a ffffee74 22f 12 3f 204 12 36 32 33 32 a 1a96 c 15 15
FIXUPS: 2fd0e fffff178 18 d5 24 3b 17 31 71 12 f 12 12 8 10 17 11 f 38
FIXUPS: 2f18b 34 a fffff8d0 21 18 26 30 24 847 2e 239 1f5 3e 3e 4a 3e 3e
FIXUPS: 2f991 34 3d 3c 3a 32 a 52 1c a 14 41 21 22 15 17 12 21 12 1e 27
FIXUPS: 2fca5 14 583 4c 3e 25 21 24 57 15 2e 24 47 1f 11 15 1c f 22 74
FIXUPS: 30566 10 ffffec86 12 52 f 1f 2a 11 2c f 1a 12 35 a0c 1c 1c 14 32
FIXUPS: 2fdf9 24 30 8 1e 28 30 2e 57 15 13 32 47 28 12 18 2b 2a 3c 67 4a
FIXUPS: 30196 2f 12 34 c f 4b7b 66 22 27 14 14 17 22 2c f f f c 3e 26 15
FIXUPS: 34f9d f f f c f f c f c c c 16 19 11 13 ffffe7fe 52 3e 5f 22 2da
FIXUPS: 33ca0 34 9e 113 b1 ce 94 72 4f 66 52 5f 22 21c 9e 113 b1 75 4f
FIXUPS: 3483a 22 21f 9e 113 b1 75 ffffd97d 3f 60 4f 1c 12 3a4 4b 4b 3a
FIXUPS: 32ca1 57 2d e4 21 5f 2a 30d 3f 1c 20 4d 34 5b bc 113 b1 8f cb 85
FIXUPS: 337cf 4f ffffe821 18 1f 1c 15 18 15 17 34 14 2d 5a 14 2d 5a 2f
FIXUPS: 322b1 5a 14 2d 5a 32 24 57 79 41 3f 60 3e 26 48 63 ffffe1e5 16
FIXUPS: 308dc 3b7 3d 15c 28c 3e 15 1b 15 24 c 38 37 4e 14e 10 4ea 37 243
FIXUPS: 31b0c 321 a db 1c 1c 1c 82 15 18 15 380f 8 4d 20 1f 1e 125 c 3a
FIXUPS: 35a64 c 16 10 10 10 22 d 23 31 10 12 f4 b b b 27 1c 17 25 ffffa9f4
FIXUPS: 307e3 70 4a75 1e 137 28 e 10 10 10 10 14 d 11 10 12 108 b b b b
FIXUPS: 35626 27 1c 17 24 39 3a 1c 21 1c 1c 17 43 1405 11 f 5 21 1d 11
FIXUPS: 36c70 f 5 22 c c c c c c 1f 13 e ffffe392 34 34 34 a 3d 53 8 4d
FIXUPS: 3526b 20 1f 1651 1f 13 11 4d 1c 19 16 1a 18 1d 18 1a 19 1a 18 1a
FIXUPS: 36acf 10 10 10 c 1e 10 1d 11 11 f 5 21 10 1d fffffb26 10 10 10
FIXUPS: 36740 10 10 c 19 10 10 14 11 13 10 10 14 11 13 14 11 f 1a c c c
FIXUPS: 368b3 c c c c c fffffaed 22 c c c c c c 1f 13 e 4c 1c 19 16 1a
FIXUPS: 3654f 1d 18 1a 19 1a 18 1d 18 1a 19 20 18 26 18 26 fffffa45 e 46
FIXUPS: 361a2 19 16 1a 18 1d 18 1a 19 1a 18 1a 13 10 10 10 c 15 10 14 11
FIXUPS: 3635f 10 14 11 f 14 11 f fffffb01 18 1d 18 1a 19 1a 18 1a 13 10
FIXUPS: 35fd7 10 c 15 10 14 f 10 14 f 14 f 5 22 c c c c c c 1f 1ef8 11
FIXUPS: 38039 f 5 29 1d 11 11 f 5 28 20 c c c c c c c 1f 13 11 ffffdbf2
FIXUPS: 35dc8 2f 2e a 44 1c 19 16 1e90 16 1a 18 1d 18 1a 19 1a 18 1a 18
FIXUPS: 37e7c 19 1a 13 10 10 10 10 c 15 f 2c 10 1d 11 11 f 5 29 10 fffffaef
FIXUPS: 37af8 5 24 10 10 14 11 f 5 24 14 11 f 5 28 c c c c c c c c c c
FIXUPS: 37c83 1f 13 11 53 1c fffffabd 19 1a 18 1d 18 20 19 26 18 26 18
FIXUPS: 3794d 19 26 18 26 13 10 10 10 10 10 10 10 c 15 f 27 10 10 14 fffffa73
FIXUPS: 37550 20 10 14 11 f 5 20 1d 11 f 5 28 c c c c c c c 1f 13 11 4c
FIXUPS: 37742 19 16 1a 18 1d 18 fffffa7a 4c 1c 19 16 1a 18 1d 18 1a 19
FIXUPS: 3739d 18 1a 18 1a 19 1a 18 20 13 10 10 10 10 10 f f 1a 10 14 11
FIXUPS: 3702a 10 10 10 10 10 f f 1a 10 14 f 5 20 10 14 f 5 20 1d f 5 28
FIXUPS: 371c7 c c c c c c 1f 13 2ea4 c c c 2a 1c 17 25 ffffcbdf 2e 2f 2e
FIXUPS: 36dff 4a 1c 19 16 1a 18 1d 18 1a 19 1a 18 1a 18 1a 19 1a 18 20
FIXUPS: 39a0a 2a 1c 17 24 64 6f 8 12 34 19 17 17 99 87 31 31 31 91 1c 1c
FIXUPS: 39e8b 10 56 1e 65 16 10 2c 10 12 43 fffff343 17 24 63 6f 8 12 34
FIXUPS: 394e2 17 17 99 87 31 31 31 a5 1c 1c 1c 10 56 1e 65 16 10 2c 10
FIXUPS: 39919 cd c c fffff0d8 163 1e 2a 1f 17 24 42 3e 3a 1c 21 1c 1c 17
FIXUPS: 38e67 5a 8 71 26 52 149 28 e 38 3c 38 15 ff 28 c 2a ffffef95 34
FIXUPS: 3834c 34 34 34 34 34 34 34 34 34 34 34 34 34 34 a 44 5a 8 71 4c
FIXUPS: 388da 28 e 1a 3e 10 3f 20 be 1c59 12 12 12 32 a 72 1b 1b 1b 1b
FIXUPS: 3a859 32 2c 1a 12 41 26 19 32 65 e c c 15 15 f ffffd787 34 34 34
FIXUPS: 382b0 4a69 12 96 2d 2f 12 92 3e 6f c c 2c 1c 17 1d 19 29 1c 14
FIXUPS: 3d18a 17 3a ffffd050 18 18 18 32 1e 125 2c8 18 14 1f6e 1c 17 1d
FIXUPS: 3c6b3 50 63 94 12 12 76 35 2d 2f 12 a1 3e 76 c c 2c 1c 17 1d 19
FIXUPS: 3cb70 12 24 17 49 6a 97 fffff0d9 3b 12 144 56 a3 99 f f f c c 5c
FIXUPS: 3c1f9 52 37 17 29 1e 50 5c 68 12 12 9a 2b f 70 3e 6c c c ffffef60
FIXUPS: 3b59a 1b 20 9d 2f 12 9d 16 3e 6f c c 40 29 24 17 29 1e 29 1c 14
FIXUPS: 3ba37 c0 99 15 15 12 15 12 de 22 fffff0d9 15 15 12 c3 22 d5 2f
FIXUPS: 3b003 f5 44 88 f c c 69 2f 27 17 29 18 29 1c 1c 1c 14 62 6a 67
FIXUPS: 3b4d8 12 7f 319d 57 21 57 1e 1e 14 d 4d 34 c c c 2a 1c 17 24 4b
FIXUPS: 3e9bb 2f 14 1ae ffffbf40 34 34 30 30 30 30 a 8e 87 339b 3e 3a 1c
FIXUPS: 3e179 c0 7d 42 2a 18 28 18 28 1e 43 28 34 e 1c 21 28 19 2d 1e 1e
FIXUPS: 3e56a 4f 2d 3c 57 1b 57 ffffef74 14 16 1a 3a ac 4e ce 2b 15 14
FIXUPS: 3d90f 1a 8d 3b 9c 8c ab 49 4f 4a 7a f3 7c 78 ab 28 1f 17 28 e 46
FIXUPS: 3fbd7 29 28 20 1d 4a 3d 10 ffffd524 34 34 34 34 34 a 4c 40 76 52
FIXUPS: 3d4a7 33 18 34 28 e 10 41 2c 13 13 16 35 1e88 18 21 15 1a2 26 26
FIXUPS: 3f720 c 35 1c 17 24 42 3e 3a 1c 21 1c 1c 21 1c 1c 17 74 1a 1e 2a
FIXUPS: 3fa7a 75 29 96 fffff0de 34 34 34 34 34 34 34 34 34 34 34 34 34
FIXUPS: 3ef64 a 61 86 8 8a 23 22 21 24 1f fb 1c 28 e ab 11e 19 5576 16
FIXUPS: 44a5b 18 b4 1a a5 3e 16 c 77 24 15 24 15 24 15 24 15 21 47 25 26
FIXUPS: 44e6c 12 1c c 19 7f ffff9cb2 34 34 58a4 1d 22 31 1a 16 19 1d 6a
FIXUPS: 44681 34 4e c c 5d 38 b 30 2a 20 f 11 d 5e 41 17 3a 15 5a 12 22
FIXUPS: 44a24 fffff4cb ad 20 74 20 33 2a 19 26 1b 2d 1c 1c 19 43 21 22
FIXUPS: 44225 1d 28 47 13 1c 8b 23 3e 46 1b 38 19 19 19 fffff2f9 15 99
FIXUPS: 43866 12 4c c 6c 12 153 19 3f 42 32 32 3f 5b 20 3d 13 4c 13 f 26
FIXUPS: 43d58 32 1a a4 c 26 18 3b fffff397 32 36 4f 1d 3d 13 3f 2d 16 16
FIXUPS: 43485 48 3c 58 8 37 12 15 41 27 49 2f 20 17 2a e 1e 1c 2f e c fffff4ab
FIXUPS: 42c66 5c be 8 37 12 15 31 27 49 30 20 17 2a e 1e 1c 2f e c 10 15
FIXUPS: 4302d 43 c 5a 12 cc 19 23 42 fffff3a3 d 76 38 38 1c 2b 38 4e d
FIXUPS: 42811 2f 60 d 4b 37 d 71 21 16 18 4e d 4d 35 d 2b 25 32 d 67 33
FIXUPS: 42040 48 c c 22 4b 43 c 70 16 16 2a 4e d 58 35 d 29 25 37 d 71
FIXUPS: 42426 2f 1a 18 4e d 3c 26 16 2d fffff53d c 5b c 34 c 67 f 1f 38
FIXUPS: 41c53 1f 2a d 4c 26 33 53 12 12 39 66 c 3b c 1f 38 41 1e 4a 2d
FIXUPS: 42027 fffff3a5 2f e c 10 29 39 3a 1c 1c 1c 17 1b4 3f 38 4e 32 3f
FIXUPS: 41823 49 23 6a 5b 32 14 c 1d 19 14 36 4d c fffff3d3 9 16 10 1a
FIXUPS: 40ecf 30 30 30 30 30 a 56 8 36 12 15 31 27 49 29 3e 2a 58 6d 73
FIXUPS: 41330 20 17 1d e 1e fffff451 45 28 90 19 140 12 29 30 f 1a 18 14
FIXUPS: 40b75 13 18 12 32 9 e 1e 8 2b 15 54 15 7a 18 3e 48 31 11 fffff577
FIXUPS: 403de 19 13 32 11 15 c a 15 a 42 57 20 17 28 54 2c 24 18 18 20
FIXUPS: 4069a 28 55 29 14 18 17 a 1a 14 fffff5b6 a 38 19 35 25 1a 30 17
FIXUPS: 3fed9 44 1a 48 41 1c 1d a2 46 10 10 a 56 36 43 5f 2c 28 48 39 3c
FIXUPS: 4036f 1f 5422 8c 60 1c 66 5c 5c 34 6e 46 11 f 77 6e 11 f 19 ef
FIXUPS: 45cf7 c 22 1f 17 29 42 3e 3a 1c 1c 17 ffff9e9a 3a 54f4 8 75 1e
FIXUPS: 4530e 101 c 12 54 c 12 54 c 12 20 c 12 1d 6d b b 78 3e 38 27 c
FIXUPS: 45738 c 14 28 c 12 19b7 1d 2c5 1d 99 11 7c 1d 14 15 17 1d 46 d
FIXUPS: 47666 28 9 13 28 1b db 11 ffffd7a7 34 34 34 34 34 34 34 a 11e e0e
FIXUPS: 460b5 1d 71 3f 87 6e 3f 91 1d 6c 3d 8d 6f 1c 6c 3d 83 64 1d 6d
FIXUPS: 46772 f7 1d 6d 36 106 1d 13a 21 2c1 1c 22f9 7f 10 25 13 16 14 2a
FIXUPS: 492c1 91 101 c f c 36 1c 17 30 f 1d 78 1c 1c 2e 71 2db ffffc563
FIXUPS: 45ed6 34 59 14 6c 2966 2c 97 23 17 6a e eb 60 c f 43 1c 1c ab 4e
FIXUPS: 48dfb 90 8 18 1f 1e 21 17 172 c f 65 10 26 17 c fffff0e3 10 2c
FIXUPS: 482f2 33 1a 62 15 20 150 c f f c f f c 3c 29 24 17 35 55 11 1a
FIXUPS: 48783 1b 18 21 1f 1c e9 fffff24e eb c c 2a 1f 17 24 4e 1c a5 2d
FIXUPS: 47e28 21 1c 1c 14 75 8c 8 18 1f 21 1e 22 21 21 22 14 160 c 15 2693
FIXUPS: 4a997 36 1a 35 12 31 15 12 c c c 2b ffffcd47 30 30 a 46 61 8 18
FIXUPS: 4796c 1e 111 c f 13 17 10 10 15 22 25fa 49 15 34 1c 1c 1c 30 26
FIXUPS: 4a285 26 18 26 1f 10 b3 27 1f 148 36 1a 35 12 d2 36 1a 35 12 d2
FIXUPS: 4a861 1a 35 911 545 44 54 44 f9 21 1b a5 34 33 b 4d c c c c c c
FIXUPS: 4bacf c c c 15 15 13 ffffde73 16 724 c f 2f 29e9 f f 15 15 13 ffffdf9c
FIXUPS: 4ab11 68 1c 1c 2a 26 19 26 18 26 18 26 1c 1c 1b 1c 1c 1b 1c 2b
FIXUPS: 4add1 305 32 3a 3a 2135 32 ffffe894 a 189 1c 1c 1c 15 26 1c 26
FIXUPS: 4bdf3 26 1b 26 1f 1c 1b 1c 1c 12a 2b 29 9f9 3a 2c c c c c f 217
FIXUPS: 4cd2e 13 1d 4c 16 1d 50 12 19 16 f 2e 13 f 38 26 72 61 3e 31 b5
FIXUPS: 4d155 c 1c 19 15 18 78 31 17 20 10ac 1c 17 1a f 36 3c 20 35 f f
FIXUPS: 4e49f f f c f f c f c f f f f f c c 1c 19 26 ffffe620 a 13c0 e
FIXUPS: 4dffc 30 2d 3c 20 16 9 12 16 9 f 23 1a 1c 10 37 16 14 17 23 11
FIXUPS: 4e243 1a 26 17 1d 17 17 3e 12 fffff65b 12 38 42 12 36 5b 3b 14
FIXUPS: 4db26 17 1d 12 f 36 e3 21 12 72 98 41 14 18 17 14 15 e 34 34 98
FIXUPS: 4df97 11 fffff5ce 14 14 14 14 1e 21 32 25 14 f 18 17 15 18 17 15
FIXUPS: 4d71c 19 a5 28 13 12 2f 13 12 41 1d f 30 12 35 1420 f c c c c 2a
FIXUPS: 4d302 2c a 8c d 19 16 16 19 19 17 11 11 11 14 14 14 14 11 11 11
FIXUPS: 4d526 14 14 14 148e 1f 1f 1f 10 12 18 15 17 13 15 df 12 18 15 17
FIXUPS: 4ec24 15 2d 1d 1d 1d 1d 12 15 15 11 13 12 f c c 84b fffff049 a
FIXUPS: 4e66e 1c 1c 1c 2f 19 19 26 18 29 18 26 19 29 18 29 1b 29 19 26
FIXUPS: 4e8e6 26 18 26 1c 10 10 10 3b 8fd 16 12 1e 23 18 1c 12 f 1e 23
FIXUPS: 4f3e5 37 23 29 15 1b 20 15 18 c c c 11 f c c f f c f c fffff89b
FIXUPS: 4ee84 1c 1c 1c 43 3c 14 1a 26 1b 29 1c 26 18 29 18 29 1c 29 1b
FIXUPS: 4f139 18 26 19 26 22 16 16 13 67 25 883 12 1e 28 18 38 12 1e 27
FIXUPS: 4fc3d 58 23 29 15 1b 25 15 34 c c c 1b f c c f f c f c 24 ffffefc9
FIXUPS: 4f66e 1c 1c 1c 43 3c 14 1a 26 1b 29 1c 26 18 29 18 29 1c 29 1b
FIXUPS: 4f923 18 26 19 26 22 16 16 13 bf 25 2b 1752 1a 29 3e 1e b 1a 63
FIXUPS: 51395 f f f f f f f f c f c f 30 21 16 6a 27 2e 56 52 23 ffffdfc3
FIXUPS: 4f601 1351 7c 18 58 2b 89 18 51 2e 81 18 5e 2b 84 51 2b 7c 58 2b
FIXUPS: 50f25 51 1d 39 51 1a 8f 1f 2e 76 1c 28 7d fffff273 f f f f f f
FIXUPS: 50523 f c f 1a 17 21 21 21 21 f f f c 42 18 57 2e 7c 18 58 2b 84
FIXUPS: 508cd 57 37f3 14 e ffffbd57 34 34 34 34 34 34 a 6f 1c 44 3c 2c
FIXUPS: 50147 40 43 43 43 43 43 43 43 43 40 43 43 2e c f 3775 e 25 3f 3f
FIXUPS: 53d02 c f 20 20 1d 1a 16 23 28 16 23 28 c f 46 2b c0 20 28 15 1f
FIXUPS: 54036 12 58 2b 38 fffff5e4 f f f 1c f 1c 36 3c 40 40 3f 2b c f
FIXUPS: 538e1 f c 15 15 1f 1f 1f 1c 1a 1d7 32 c f f f c fffff2ef 3f 42
FIXUPS: 52fb5 43 40 43 3e 2e f c f f f f f 21 21 eb 15 24 24 2f4 1c 1c
FIXUPS: 5361f 26 3c 2d f c f fffff338 c f f f f c f 21 1e 15 22 84 36 22
FIXUPS: 52c49 42 12 22 8b 36 22 8e 2d c f f f f c f 11 fffff67b f f f f
FIXUPS: 52599 11 26 40 2b c 20 1d 13 3b 23 3d 13 3a 23 28 c 11 11 25 3f
FIXUPS: 5289e 42 3f 42 42 3f fffff7dc 28 f c f 1c 36 39 36 39 39 39 39
FIXUPS: 523e3 f c f f f f f 15 18 12 15 17 1a 18 22 1a f c fffff793 34
FIXUPS: 51d38 34 34 34 a 60 1c 1c 45 2a 5c 20 3b 3e 3a 2e f c f 19 1c 16
FIXUPS: 520d0 13 1a 23 35 19 13 1a 22b3 12 12 10 16 16 c c 14 17 1a f c
FIXUPS: 54532 c c c c 162 1c 17 1d 39 3a 1c 1c 17 ffffd21c 69 43 1c6 38
FIXUPS: 549a7 1a 1c 10 4e 16 3d 12 5 c c c 15 15 e fffff67f 34 a ba 8 67
FIXUPS: 5430b 4c 17 17 17 17 17 17 24 1d 12 1024 2d 5a 11 11 14f 16 15d
FIXUPS: 557f3 65 37 128 c c c c c c c 11 ffffedf2 a 5b 1c 1c 1c 1c 1c 43
FIXUPS: 5495c 19 1a 7a2 18 26 18 26 19 26 18 26 18 26 19 26 23 1d 1d 1d
FIXUPS: 5533e 12 15 15 9 9 9 9 11 11 11 f f f 2d fffff88b 18 1a 1c 1a 1b
FIXUPS: 54d53 1a 1a 1a 10 1d 1d 12 5 15 1e 1d a1 32 5 22 1d a0 32 5 22
FIXUPS: 55092 16 24 26 19 10fd f f f 2d 2d 2d 5a 11 11 e5 4c c c c c c
FIXUPS: 564b1 c 11 ffffe669 a 54 1c 1c 1c 1c 2f 1a 19 1d 18 1251 16 24
FIXUPS: 55f41 19 1a 18 1a 18 26 19 26 18 26 18 26 19 26 23 1d 1d 1d 1d
FIXUPS: 56187 15 15 9 9 9 9 11 11 fffff92e 2f 1a 19 1d 18 1a 18 1a 19 1a
FIXUPS: 55c53 1a 1a 1a 1a 10 1d 1d 12 5 15 1e 1d 12 5 22 1e a1 32 5 22
FIXUPS: 56b15 1e 1b 11 14 11 11 11 11 12 14 11 11 c c 9 c 9 c b b b b e
FIXUPS: 56c89 10 ffffedbe a 54 1c 1c 1c c52 17 17 12 5 15 17 17 12 5 1c
FIXUPS: 5682d 12 5 22 a3 1e 1e 1f 1e 21 29 20 23 20 1d 29 20 20 15 18 1b
FIXUPS: 5726a 37 5c 3a 237 3f c c c c 14 ffffef16 a 50 1c 1c 1c 2f 1a 19
FIXUPS: 56634 18 1a 18 1a 19 1a 18 1a 1a 1a 1a 2361 c f 28 1f 17 26 56
FIXUPS: 58bdf 3a 1c 1c 17 ffffe178 24 3c 1a 45 16 16 19 6e 18 18 18 18
FIXUPS: 57008 1c 159 29 50 27 1379 2f 2d 16 f 3b 20 1a 1a 2b 13 18 3b 1c
FIXUPS: 58769 16 22 25 5d 65 23 39 1d 16 39 4b 3c 1c 2a 17 5a f fffff306
FIXUPS: 57dea 59 46 51 35 50 3e 4b d1 24 18 12 15 15 12 14 dc 38 2f 2b
FIXUPS: 58331 35 35 35 9a 24 21 27 2d 2f 32 11cd 1c 95 38 78 21 25 15 11
FIXUPS: 5990f ffffddc5 45 46 45 45 46 45 45 46 45 45 46 45 45 46 45 45
FIXUPS: 57b6f 45 42 2c 1c 1486 1c 9d 17 1d 8f 15 1b 15 1b 2e 2d 4d 15 1c
FIXUPS: 5938b 12 12 12 12 12 88 32 57 41 53 37 24 94 7b 1c 15 14ef f c
FIXUPS: 5ac3e 28 1f 17 26 42 3e 3a 1c 1c 17 ffffdf19 7 f f 2e a 2d ad 41
FIXUPS: 58eb2 15 1c 88 41 56 24 2a 57 163e 32 2f 2d 16 f 3b 20 1a 1a 1c
FIXUPS: 5a85b 3b 1c 16 16 22 25 5d 38 26 23 39 1d 16 39 4e 3c 2e 31 1a
FIXUPS: 5ac05 fffff28a 45 42 2c 1c 15b 47 59 8c d1 24 18 12 15 15 12 14
FIXUPS: 5a3b1 23 23 24 2b 6c 35 35 35 9a 24 21 27 2d 2f 1144 3e 14 f c
FIXUPS: 5b870 c f c f f c 1f 11 12 ffffe0f1 45 46 45 45 46 45 45 46 45
FIXUPS: 59ca9 46 45 45 46 45 45 121e 2f 1c 2a 10 171 c c 1b 1e 21 20 23
FIXUPS: 5b34c 24 3a 24 35 19 21 28 27 4a 49 3e 8e 55 f 21 2f 8b 35 466
FIXUPS: 5bc18 13 2d a2 6d 2f 1e c c f c 2b b1 2d ffffef17 a 4b 36 36 36
FIXUPS: 5af37 36 2e c c f c f 17 39 2e 1297 f 1c 25 1a 16 3c a8 79 32 1e
FIXUPS: 5c52e f 2b fffff3cf a 59 1c 1c 1b 3e 3b 3a 2e f f c 1c 28 3e 22
FIXUPS: 5bbab fa7 68 20 19 19 9 1a 15 12 fffff2ce a 59 1c 1b 3e 31 f 15
FIXUPS: 5c080 4a 47 4b 47 4a 46 43 2e f f c c c 192c 19 ffffe973 a 4b 34
FIXUPS: 5c67c 1d 28 11 f 18 1d 1b 1d 28 11 21 22 2d 22 22 25 1c 22 2b 25
FIXUPS: 5c956 89 56 80 7f a5e 57 b2 17c 1c 100 42 31 1e 1f 1e 1f 1e 1f
FIXUPS: 5da7b 1c 1e 24 1e 24 1e 19 1e c f f f f c f f 18 fffff180 25 39
FIXUPS: 5ce27 13 16 21 25 30 2f 21 3e 21 4a 18 32 29 29 22 6c 25 22 25
FIXUPS: 5d1f5 111 8a 2c 22 22 22 22 bb d75 8c 34 111 1d 26 18 67 12 69
FIXUPS: 5e5b6 107 19 22 f c 2a 22 22 15 f c 33 f 14 e 3c ffffe43d a 95
FIXUPS: 5cd43 16 f98 9 25 3a 18 9 25 11 11 a d 34 a e9 25 17 8a c 37 26
FIXUPS: 5e050 26 1b 29 1a 44 1d 21 23 82 2d 34 254b 54 89 30 36 cb 19 38
FIXUPS: 60b00 30 36 54 89 30 36 98 474 c c c f f c c f 15 15 12 ffffca16
FIXUPS: 5dc84 1d 38 1d05 5a 17 a8 1a 14 f3 26f 19 3b 89 2d 36 c2 89 2d
FIXUPS: 60175 ce 19 3b 89 2d 36 c2 89 2d 36 cb 19 38 f4 30 ffffe628 18d
FIXUPS: 5ef45 24a 1c 1a6 f8 f9 27 2f a 9f 1c 1c 2e d 1a 2d 5a 14 24 57
FIXUPS: 5f7f8 24 57 14 24 57 14 2d 5a 14 1d2b f 8c c c 28 1c 17 25 29 1c
FIXUPS: 61870 1c 14 25 63 2b 17 1f 87 3f 10 f 3a 21 c e ffffcf02 1f 1de
FIXUPS: 5ebfe 178 31f8 12 22 15 9f 19 d fffff220 a 32 53 8 12 26 28 17
FIXUPS: 613e8 27 27 35 2c 32 2c 19 25 57 1f 2e 17 2e 12 2e 6de 16 14 8
FIXUPS: 61d76 10 10 a 10 1b 8 11 10 16 10 11 10 14 20 15 14 15 16 7 1a
FIXUPS: 61ef4 16 10 7 16 d 16 9c4f 46 12 38 46 12 2d 13 ffff5e4f 34 34
FIXUPS: 61b92 3b 7 7 e d 2b 13 3c 8 10 10 10 14 8 11 10 11 1b 8 11 7878b
FIXUPS: da4c0 c fff9132f 1b 3e 7 26 11 1b 38 12 14 6ebca b c fff9147f 1b
FIXUPS: 6b9c4 7 26 11 1b 38 12 14 6ea7a b c fff9160d 46 12 ffffedfb a8
FIXUPS: 6ac59 204 27 55 49 67 13 a8 245 204 27 2f 17 32 37 17 32 37 17
FIXUPS: 6b62c 5f 1b 3e 7 26 11 1b 38 12 14 ffffe345 16 4a 16 4a 16 4a 16
FIXUPS: 69c60 17 59 16 4a c b 59 c b 59 c b 452 47 69 13 a8 245 204 27
FIXUPS: 6a8a9 4b 65 ffffeb07 29 a 26 a 32 a 42 a 3f c a 29 a 32 a 42 a
FIXUPS: 6969a c a 29 a 26 a 32 a 42 a 3f c a fffff8bb 3f c a 29 a 32 a
FIXUPS: 691b1 a 3f c a 29 a 26 a 32 a 42 a 3f c a 29 a 32 a 42 a 3f c fffff8bb
FIXUPS: 68d1b 3f c a 29 a 26 a 32 a 42 a 3f c a 29 a 32 a 42 a 3f c a 29
FIXUPS: 68ff3 26 a 32 a 42 fffff8c0 c 17 7 10 7 7 f 81 a 32 a 42 a 3f c
FIXUPS: 68b20 29 a 26 a 32 a 42 a 3f c a 29 a 32 a fffff8cf 33 29 e 6f
FIXUPS: 68691 21 2c 31 33 29 e b 6e f c 17 7 10 7 7 f 4a f c 17 7 10 7
FIXUPS: 688f9 f 4a fffff6b7 d 71 1a 21 2c 31 33 29 e b 75 1a 21 2c 31 33
FIXUPS: 682fd 11 79 1a 21 2c 31 33 29 e b 72 1a 21 2c fffff421 31 33 29
FIXUPS: 67a29 b f9 8e 16 55 1a 21 2c 31 33 29 e 6f 1a 21 2c 31 33 29 e
FIXUPS: 67ea4 71 1a 21 2c 31 33 fffff302 53 1a 21 2c 31 33 29 d 71 1a 21
FIXUPS: 6750e 31 33 29 e b fb 8d 16 57 1a 21 2c 31 33 29 11 79 1a 21 ffffeedf
FIXUPS: 6686b 9b 5 59 aa 32 2a 2a 27 27 21 a 51 65 2c 85 36 54 2c 75 2c
FIXUPS: 66e63 5c 39 a 56 a 56 a 27d 8d ffffecfe 2a 27 27 21 a 52 66 2a
FIXUPS: 661c8 33 54 2c 76 2a 8c 59 ae 32 2a 2a 27 27 21 a 52 66 2a 88 36
FIXUPS: 6679f 2c ffffeeec 36 52 2c 76 2a 9b 5 59 4c 16 a8 32 2a 2a 27 27
FIXUPS: 65b03 a 51 65 2c 85 36 54 2c 75 2c 98 5c af 32 ffffef0e 32 2a 2a
FIXUPS: 64f5b 27 21 a 52 66 2a 79 33 54 2c 76 2a 8c 59 50 16 a8 32 2a 2a
FIXUPS: 654fb 27 21 a 52 66 2a 74e28 b fff8a6b8 27 1e 75918 b fff8a71c
FIXUPS: 64bb0 14 758d3 b fff8a743 13 1d 13 1d 13 1d 13 1d 13 1d 13 30 a
FIXUPS: 64d58 a 36 a 4e 16 fffffa2a 14 75b53 b fff8a4d8 27 1e 75af8 b fff8a53c
FIXUPS: 64910 14 75ab3 b fff8a578 27 1e 75a58 b fff8a5dc 12 14 75a13 b
FIXUPS: 64a3a 27 1e 759b8 b fff8a67c 12 14 fffff9f8 18 18 2b 24 f 20 75d8a
FIXUPS: da320 b fff8a28a a 23 a 5b 35 3e 27 1e 75c38 b fff8a3fc 12 14 75bf3
FIXUPS: da362 fff8a438 27 1e 75b98 b fff8a49c fffff57f 27 33 73 81 2d 18
FIXUPS: 63f48 18 2b 24 f 20 76316 c b fff89cfa a 23 a 5b 35 c7 21 21 22
FIXUPS: 64349 27 33 73 81 2d fffff078 d cc 22 22 22 162 27 33 73 81 2d
FIXUPS: 63970 18 18 2b 24 f 20 768b6 c b fff8975a a 23 a 5b 35 c9 22 22
FIXUPS: 63c3b fffff345 18 18 2b 24 f 20 77266 c b fff88dc1 d 8a 21 21 22
FIXUPS: 632b9 27 33 73 81 2d 18 18 18 2b 24 f 20 76dba c b fff8847a 22
FIXUPS: 62789 22 162 27 33 73 81 2d 18 18 18 2b 24 f 20 77726 c b fff88901
FIXUPS: 62b99 8c 22 22 22 162 27 33 73 81 2d aeb5 6c797 c b fff87cc5 34
FIXUPS: 622f8 34 34 34 a 54 8 21 8 21 8 21 8 21 8 1e 8 32 c f 114 20 20
FIXUPS: 62685 20 20 b0a9 5b 42 28 40 29 18 18 2b 24 f 1f 6cc4b c b fff93427
FIXUPS: 6d9f3 21 152 27 b0 25 5b 32 28 30 29 18 18 2b 24 f fffff140 1f
FIXUPS: da554 c b fff92a79 22 22 162 27 b0 23 5b 31 28 2f 29 18 18 2b 24
FIXUPS: 6d41e 1f 6d137 c b fff92f39 22 22 162 27 b0 fffff140 2d 5b 42 28
FIXUPS: 6c9b3 29 18 18 2b 24 f 1f 6daab c b fff925c7 21 21 152 27 b0 25
FIXUPS: 6cdfd 32 28 30 29 18 18 2b 24 fffff0d2 1c 8 32 c f b2 22 22 162
FIXUPS: 6c2f1 b0 23 5b 31 28 2f 29 18 18 2b 24 f 1f 6df97 c b fff920d9
FIXUPS: 6c626 22 162 27 bf03 12 7 12 7 14 f 15 15 a c c 14 12 164 74 ffff348d
FIXUPS: 6be34 34 34 34 34 a 52 8 1f 8 1f 8 1f 8 1c c4a0 25 9 d 3c 9 25
FIXUPS: 78547 d 2b 8 c d 34 9 c 9 c 9 c 9 1c a 12 7 19 10 a 14 7 14 d fffffbdf
FIXUPS: 782b2 c 9 c 9 1d a 12 7 17 10 a 14 7 13 d a 12 7 11 7 13 f 15 15
FIXUPS: 78419 c b 13 12 3b fffffbab d a 12 7 11 7 13 f 15 15 a c b 13 12
FIXUPS: 78150 9 25 9 d 3c 9 25 9 d 2b 8 c d 34 9 fffffb30 43 9 25 9 d 3c
FIXUPS: 77e99 25 9 d 2b 8 c d 34 9 c 9 c 9 c 9 1d a 12 7 17 10 a 14 7 fffffa06
FIXUPS: 77a3b 9 d 4e 9 d 9 d 7e 12 4a 9 d 9 d 4e 9 d 9 d 4a 9 d 9 d 4e
FIXUPS: 77d18 d 9 d 80 fffff913 d 9 d 4e 9 d 9 d 4a 9 d 9 d 4e 9 d 9 d
FIXUPS: 778d9 12 4a 9 d 9 d 4e 9 d 9 d 4a fffff5fc 40 13 12d 10 40 13 c5
FIXUPS: 772e3 36 1a 36 1a 36 1a 36 1a 36 1a 36 1a 3b 1a 41 1a 3b 1a 41
FIXUPS: 77623 3b 1a 4d fffff25e 2f 9 d 3a 9 d 41 1a 36 1a 2f 9 d 3a 9 d
FIXUPS: 76b39 1a 36 1a 73 19 d fa 19 d 125 10 40 13 12d fffff591 d 3a 9
FIXUPS: 765ff 3a 9 d 3a 9 d 3a 9 d 3a 9 d 3a 9 d 3a 9 d 33 9 d 3a 9 d 41
FIXUPS: 768d3 36 fffff963 c 9 16 21 7 30 35 17 3d 8 11 a 9 18 7 18 35 a
FIXUPS: 76459 9 d 3a 9 d 3a 9 d 3a 9 d 3a fffffa04 8 13 17 9 19 7 14 37
FIXUPS: 7605a 13 13 17 19 7 14 38 17 13 13 1d 19 7 17 30 17 13 12 15 7
FIXUPS: 76234 2f fffffaa4 c 9 8 21 7 3b c 8 11 b 9 15 7 15 41 9 c 9 8 21
FIXUPS: 75e80 42 17 13 11 b 15 7 15 3a 17 fffffa77 7 17 34 17 13 10 17
FIXUPS: 75aab 17 3f 9 c 9 16 1a 7 2f 2f 17 3d 8 11 a 9 16 7 18 37 a 48
FIXUPS: 75cfb fffffa26 7 36 17 13 13 17 7 14 36 17 13 8 14 16 9 17 7 14
FIXUPS: 758d3 17 13 14 16 17 7 14 3a 17 13 14 19 fffffaa1 3d 8 11 a 9 16
FIXUPS: 75511 18 37 a 47 9 c c 9 8 1a 7 32 c 8 13 9 17 7 14 49 9 c 9 8
FIXUPS: 751a3 17 13 f 16 17 7 14 2f 17 13 f 19 17 7 17 3a 17 13 e 14 7
FIXUPS: 7537f 42 9 c 9 16 1a 7 2f 2f fffffab7 a a 9 14 7 15 4a 9 c 9 8
FIXUPS: 75002 7 36 17 13 a a 14 7 15 36 17 13 8 f 16 9 17 7 14 fffffb1e
FIXUPS: 74c9c c 9 16 21 7 30 35 9 c 9 32 8 11 a 9 18 7 18 39 a 48 9 c c
FIXUPS: 74ebc 8 1a 7 32 c fffffafa 7 14 3b 9 c 9 8 13 17 19 7 14 3c 9 c
FIXUPS: 74b51 8 13 1d 19 7 17 34 9 c 9 8 12 15 7 18 fffffb8c b 9 15 7 15
FIXUPS: 74872 9 c 9 8 21 7 42 9 c 9 8 11 b 15 7 15 2e 9 c 9 8 8 13 17 9
FIXUPS: 74553 9 c 9 16 1a 7 30 2c 9 c 9 32 8 11 a 9 16 7 18 2b a 48 9 c
FIXUPS: 74753 9 8 21 7 3b 14 fffffb20 7 14 2d 9 c 9 8 14 16 17 7 14 2e
FIXUPS: 743fc c 9 8 14 19 17 7 17 38 9 c 9 8 10 17 7 17 fffffb98 14 13
FIXUPS: 740e6 17 7 14 49 9 c 9 8 1a 7 36 9 c 9 8 13 17 7 14 3a 9 c 9 8
FIXUPS: 742b1 14 16 9 fffffb1f 18 38 9 c 9 16 1a 7 30 2c 9 c 9 32 8 11
FIXUPS: 73f77 9 16 7 18 2b a 47 9 c c 9 8 1a 7 fffffb62 9 17 7 14 32 9
FIXUPS: 73c68 9 8 f 16 17 7 14 33 9 c 9 8 f 19 17 7 17 2e 9 c 9 8 e 14
FIXUPS: 739c7 14 a a 9 14 7 15 4a 9 c 9 8 1a 7 36 9 c 9 8 a a 14 7 15 3a
FIXUPS: 73b9c c 9 8 8 f fffffb69 3c 24 c c f 1f 66f75 9 9 c b fff99088
FIXUPS: 7380f 26 a 26 a 26 a 26 a 26 a 43 9 c c 9 8 1a 7 fffff5e7 1c 11
FIXUPS: 7303e 27 27 25 1c b 91 25 25 1c 2b 12 a 95 27 27 26 25 95 27 28
FIXUPS: 7344e a6 16 8d 2e 9d 1d 8d 67008 9 9 c b fff9830b 1b 58 46 2e f
FIXUPS: 72b49 95 25 28 28 2a 2b 19 2b b b 98 22 28 25 28 25 1e 95 27 27
FIXUPS: 72231 b 91 26 26 1d 2b 12 d 95 2f 2f 2d 28 95 2f 2f 2d bc 1e 91
FIXUPS: 7278f ad 1e 91 3b 3c 24 c c f 1e fffff201 4b 3c f b 95 26 29 29
FIXUPS: 71da5 2b 19 2b b b 98 23 29 26 29 26 22 95 2f 2f 2d 1c 14 95 2f
FIXUPS: 721e8 2d fffff304 a 95 25 25 23 25 95 25 25 23 a6 15 8d 2b 9d 1b
FIXUPS: 71a04 2a 3c 24 c c f 1f 68c00 9 9 c b fff9744a 1b fffff3d7 29 2b
FIXUPS: 70fb8 19 2b b b 98 23 29 26 29 26 1f 95 25 25 23 1c 11 95 25 25
FIXUPS: 713bb 1c b 91 26 26 1d 2b fffff3d2 27 28 26 a6 16 8d 2e 9d 1d 8d
FIXUPS: 70c39 3c 24 c c f 1f 699b5 9 9 c b fff9669b 1b 58 45 2b f b 95
FIXUPS: 70f10 fffff2f2 98 22 28 25 28 25 1e 95 27 27 25 1c 11 95 27 27
FIXUPS: 705b1 1c b 91 25 25 1c 2b 12 a 95 27 27 26 25 fffff44b ad 1e 91
FIXUPS: 6fe26 3c 24 c c f 1e 6a789 9 9 c b fff958cb 1b 58 46 2e f b 95
FIXUPS: 70103 28 28 2a 2b 19 2b b fffff2ae 95 2f 2f 2d 1c 14 95 2f 2f 2d
FIXUPS: 6f731 b 91 26 26 1d 2b 12 d 95 2f 2f 2d 28 95 2f 2f 2d bc 1e 91
FIXUPS: 6ef9a c f 1f 6b640 9 9 c b fff94a0a 1b 6a 4b 3c f b 95 26 29 29
FIXUPS: 6f2a5 2b 19 2b b b 98 23 29 26 29 26 fffff3cb 25 25 23 1c b 91
FIXUPS: 6e999 26 1d 2b 12 a 95 25 25 23 25 95 25 25 23 a6 15 8d 2b 9d 1b
FIXUPS: 6ef04 2a 3c 24 6b673 b fff93c4c 1b 58 45 2b f b 95 26 29 29 2b
FIXUPS: 6e4b8 19 2b b b 98 23 29 26 29 26 1f 95 25 25 23 1c 11 a736 ffff4f71
FIXUPS: 6de94 34 34 34 34 a 68 1d f 1b 1d f 1b 1d f 1b 1d f 21 26 12 1e
FIXUPS: 6e174 12 2c 6c422 9 9 9 9 fffa2c0e ffffb9ca 34 34 a 3b 7 7 e d
FIXUPS: 78cb9 29 2d 14 8 23 14 8 23 b 7 23 14 7 23 b 23 1b 27 f 27 2b 4124
FIXUPS: 7cffe f 9 c 9 c e a 12 7 24 19 a 14 7 1f 16 a 12 7 12 7 22 18 15
FIXUPS: 7d19f a c c 22 14 fffffbfb c 9 c 9 1c a 12 7 19 10 a 14 7 14 d
FIXUPS: 7ced4 12 7 12 7 14 f 15 15 a c c 14 12 45 9 fffffc15 9 c 9 1c a
FIXUPS: 7cc54 7 19 10 a 14 7 14 d a 12 7 12 7 14 f 15 15 a c c 14 12 39
FIXUPS: 7cddd c fffffbe2 c f a 12 7 22 19 a 14 7 1e 16 a 12 7 11 7 21 18
FIXUPS: 7cb26 15 a c b 21 14 f 34 9 c 9 fffffbf7 a 12 7 17 10 a 14 7 13
FIXUPS: 7c878 a 12 7 11 7 13 f 15 15 a c b 13 12 3b 9 c 9 f 9 c fffffc41
FIXUPS: 7c615 7 17 10 a 14 7 13 d a 12 7 11 7 13 f 15 15 a c b 13 12 2f
FIXUPS: 7c78d c 9 c 9 c 9 fffffbfd 22 19 a 14 7 1e 16 a 12 7 11 7 21 18
FIXUPS: 7c4e6 15 a c b 21 14 f 34 9 c 9 c 9 c 9 1d fffffbfa a 14 7 13 d
FIXUPS: 7c242 12 7 11 7 13 f 15 15 a c b 13 12 3b 9 c 9 f 9 c 9 c f a 12
FIXUPS: 7c00d 14 7 13 d a 12 7 11 7 13 f 15 15 a c b 13 12 2f 9 c 9 c 9
FIXUPS: 7c183 9 1d a 12 7 17 fffff98b d 88 12 7e 12 2f 5a 16 c 7b 12 7e
FIXUPS: 7be6d 37 52 16 c 3c 9 c 9 c 9 c 9 1d a 12 7 17 10 fffff607 36 a
FIXUPS: 7b698 a 37 9 d 3a 9 d 57 19 d fd 12 7e 12 39 50 16 c 7b 12 42 9
FIXUPS: 7baeb 9 d 4e 9 d fffff6b7 c 9 16 1a 7 30 28 a 36 a 4e a 2e a 36
FIXUPS: 7b3da 4e a 2e a 36 a 4e a 2e a 36 a 4e a 2e fffff799 e 27 a 1f
FIXUPS: 7ae01 26 a 2a e e 27 a 1f a 26 a 2a e e 27 a 28 a 36 a 4e a e6
FIXUPS: 7b1c5 17 37 fffff7a3 a8 32 2a 2a 27 27 21 a 2a a 26 a 2a e e 27
FIXUPS: 7ac38 1f a 26 a 2a e e 27 a 1f a 26 a 2a fffff91c 6026d 9 9 c b
FIXUPS: 7a6c9 a 37 27 1e 60208 b fff9fe2c 12 14 601c3 b fff9fe7e 16 1f
FIXUPS: 7a848 1f a 26 a 2a e e 27 a 88 fffff99e 24 c c f 1e 6052d 9 9 c
FIXUPS: da8fd fff9fb09 1e 54 12 1c 15 2e 13 14 34 49 12 1c 15 14 2e 2b
FIXUPS: 7a661 c c f fffff8d1 19 14 14 2e 2b 24 c c f 1f 60837 9 9 c b fff9f808
FIXUPS: 7a0e3 64 17 20 1d 2e 13 14 34 59 17 20 1d 14 2e fffff896 13 14
FIXUPS: 79c04 49 12 1c 15 14 2e 2b 24 c c f 1f 60aed 9 9 c b fff9f549 1e
FIXUPS: 79e38 11 19 14 2e 13 14 34 49 fffff82b 68 20 20 26 2e 13 14 34
FIXUPS: 79927 20 20 26 14 2e 2b 24 c c f 1e 60db1 9 9 c b fff9f289 1e 54
FIXUPS: 79b4a 1c 15 60c46 b fff9ec10 d 6d 1e 54 11 19 14 2e 13 14 34 49
FIXUPS: 795e9 19 14 14 2e 2b 24 c c f 1f 610e7 9 9 c b fff9ef58 5023 ffffa868
FIXUPS: 79014 34 34 34 34 a 68 1d f 1b 1d f 1b 1d f 1b 1d f 21 26 12 1e
FIXUPS: 792f4 12 2c 61462 9 9 9 9 fffa3a90 8 1d b 1d 1d 11 f 1f 29 21 c
FIXUPS: 7e353 f 1f 5c613 9 9 9 b fffa3aa6 5b 16 50 53 4a 1b 57 2d 7c 11
FIXUPS: 7e75e fffff852 1a 2b 13 a 8 1d b 1d 1d 11 f 1f f 16 11 1f 13 a
FIXUPS: 7e135 1d b 1d 1d 11 f 1f f 16 11 1f 13 fffffab3 12 1a 13 1d b a
FIXUPS: 7dd85 b 1d b a 23 f 8 a 1c b a 1c b 1d 35 f 1d 1b 1f 21 1b 1f 11
FIXUPS: 7dfa5 fffffb19 c a 10 15 c c f 13 a 10 15 c c f 13 3f 15 c c f
FIXUPS: 7dc33 9 f 9 8 1d b 1d b 1d b fffffbc2 15 12 c 11 12 f 10 11 12
FIXUPS: 7d93d 10 10 12 f 14 c 11 12 c f 10 11 12 c f 10 10 12 c f 10 432c
FIXUPS: 81dce 3e 12 56 2c 29 19 2e 53 19 57 19 56 19 ffffb695 34 34 a 3b
FIXUPS: 7d7a4 7 e d 47 f 10 15 10 10 15 10 3bc6 8c 4c 61 57 8b 3e 228 206
FIXUPS: 81b30 35 8 18 9 c 9 c 11 a 9 14 a a 9 14 6a 31 2e 3e 31 2e 21 fffff26f
FIXUPS: 81045 8 18 9 c 9 c 11 a 9 12 a a 9 12 5e 31 2e 3e 31 2e 21 14 1b
FIXUPS: 812dc 12 56 2c 29 19 2e fffff1aa 9 12 a a 9 12 5e 31 2e 3e 31 2e
FIXUPS: 8074f 14 1b 3e 12 56 2c 29 19 2e 6c 8c 4c 61 57 8b 3c 228 206 ffffecd1
FIXUPS: 7fc90 d b 1d b a 1a 18 f 1f 5acca 9 b fffa53f4 8c 4c 61 57 8b 3c
FIXUPS: 8028b 206 5d 37 8 18 9 c 9 c 11 fffff4df 14 16 17 2d 11 9 8 17
FIXUPS: 7fb18 13 16 9 8 1a 12 16 12 10 c 9 c 9 c 9 c 15 b 1d d a 1a fffffb4f
FIXUPS: 7f7d8 35 1a 16 27 38 8 f 8 6 10 6 13 15 14 16 3a 8 6 10 6 13 15
FIXUPS: 7f9c3 16 3a 8 6 10 6 13 fffffaee 15 a 21 d a 1a 13 e d a 21 b a
FIXUPS: 7f631 18 f 1f 5b36d 9 b fffa4cbb 3d 8 f f 6 10 6 13 15 34 fffffb5a
FIXUPS: 7f322 8 6 10 6 13 15 14 1c 17 3f 16 9 8 1e 12 13 16 9 8 1e 12 16
FIXUPS: 7f4dd 10 c 9 c 9 c 9 fffffad7 6 10 6 13 15 3d 31 1b 35 1b 16 30
FIXUPS: 7f19f 8 f 8 6 10 6 13 15 14 1c 3a 8 6 10 6 13 15 14 fffffb0a c
FIXUPS: 7edeb c 9 c 9 c 15 a 1c d a 1a 13 e d a 1c b a 1a 18 f 1f 5ba6e
FIXUPS: da9cd b fffa45be 3d 8 18 fffffba5 6 10 6 13 15 14 13 3a 8 6 10
FIXUPS: 7ec61 13 15 14 13 17 2d 10 9 8 14 12 13 16 9 8 17 12 16 12 fffffaca
FIXUPS: 7e8a1 d 45 3d 8 f d 6 10 6 13 15 34 2e 16 35 14 16 27 36 8 f 8
FIXUPS: 7eaf1 10 6 13 15 14 13 3a 367d 8 20 11 7 20 b 20 2a 7 25 13 7 23
FIXUPS: 8233a 21 f 21 22 1b 19 58643 b fffa7a23 c d ffffc355 34 34 a 3f
FIXUPS: 7e882 3d5c 5 5 5 5 5 5 5 5 5 5 5 5 5 5 5 d 1a a fffffa46 34 34
FIXUPS: 82112 3b 7 7 e d 41 34 d c 33a 5 5 5 5 5 5 5 5 5 5 5 5 5 5 5 5
FIXUPS: 82593 5 5 5 5 5 5 5 5 5 5 5 5 5 5 fffffeb7 10 8 5 5 5 5 5 5 5 5
FIXUPS: 824d5 5 5 5 5 5 5 5 5 5 5 5 5 5 5 5 5 5 5 5 5
